Archive member included to satisfy reference by file (symbol)

/home/bhavya/Downloads/1/plugins/fr.ac6.mcu.externaltools.arm-none.linux64_1.17.0.201812190825/tools/compiler/bin/../lib/gcc/arm-none-eabi/7.3.1/../../../../arm-none-eabi/lib/thumb/v7e-m/fpv4-sp/hard/libc.a(lib_a-errno.o)
                              startup/sysmem.o (__errno)
/home/bhavya/Downloads/1/plugins/fr.ac6.mcu.externaltools.arm-none.linux64_1.17.0.201812190825/tools/compiler/bin/../lib/gcc/arm-none-eabi/7.3.1/../../../../arm-none-eabi/lib/thumb/v7e-m/fpv4-sp/hard/libc.a(lib_a-exit.o)
                              /home/bhavya/Downloads/1/plugins/fr.ac6.mcu.externaltools.arm-none.linux64_1.17.0.201812190825/tools/compiler/bin/../lib/gcc/arm-none-eabi/7.3.1/../../../../arm-none-eabi/lib/thumb/v7e-m/fpv4-sp/hard/crt0.o (exit)
/home/bhavya/Downloads/1/plugins/fr.ac6.mcu.externaltools.arm-none.linux64_1.17.0.201812190825/tools/compiler/bin/../lib/gcc/arm-none-eabi/7.3.1/../../../../arm-none-eabi/lib/thumb/v7e-m/fpv4-sp/hard/libc.a(lib_a-impure.o)
                              /home/bhavya/Downloads/1/plugins/fr.ac6.mcu.externaltools.arm-none.linux64_1.17.0.201812190825/tools/compiler/bin/../lib/gcc/arm-none-eabi/7.3.1/../../../../arm-none-eabi/lib/thumb/v7e-m/fpv4-sp/hard/libc.a(lib_a-exit.o) (_global_impure_ptr)
/home/bhavya/Downloads/1/plugins/fr.ac6.mcu.externaltools.arm-none.linux64_1.17.0.201812190825/tools/compiler/bin/../lib/gcc/arm-none-eabi/7.3.1/../../../../arm-none-eabi/lib/thumb/v7e-m/fpv4-sp/hard/libc.a(lib_a-init.o)
                              /home/bhavya/Downloads/1/plugins/fr.ac6.mcu.externaltools.arm-none.linux64_1.17.0.201812190825/tools/compiler/bin/../lib/gcc/arm-none-eabi/7.3.1/../../../../arm-none-eabi/lib/thumb/v7e-m/fpv4-sp/hard/crt0.o (__libc_init_array)
/home/bhavya/Downloads/1/plugins/fr.ac6.mcu.externaltools.arm-none.linux64_1.17.0.201812190825/tools/compiler/bin/../lib/gcc/arm-none-eabi/7.3.1/../../../../arm-none-eabi/lib/thumb/v7e-m/fpv4-sp/hard/libc.a(lib_a-memcpy.o)
                              Ventilation/src/SYSTEM/INT_BlowerTemperatureInterpol.o (memcpy)
/home/bhavya/Downloads/1/plugins/fr.ac6.mcu.externaltools.arm-none.linux64_1.17.0.201812190825/tools/compiler/bin/../lib/gcc/arm-none-eabi/7.3.1/../../../../arm-none-eabi/lib/thumb/v7e-m/fpv4-sp/hard/libc.a(lib_a-memset.o)
                              /home/bhavya/Downloads/1/plugins/fr.ac6.mcu.externaltools.arm-none.linux64_1.17.0.201812190825/tools/compiler/bin/../lib/gcc/arm-none-eabi/7.3.1/../../../../arm-none-eabi/lib/thumb/v7e-m/fpv4-sp/hard/crt0.o (memset)
/home/bhavya/Downloads/1/plugins/fr.ac6.mcu.externaltools.arm-none.linux64_1.17.0.201812190825/tools/compiler/bin/../lib/gcc/arm-none-eabi/7.3.1/../../../../arm-none-eabi/lib/thumb/v7e-m/fpv4-sp/hard/libc.a(lib_a-__call_atexit.o)
                              /home/bhavya/Downloads/1/plugins/fr.ac6.mcu.externaltools.arm-none.linux64_1.17.0.201812190825/tools/compiler/bin/../lib/gcc/arm-none-eabi/7.3.1/../../../../arm-none-eabi/lib/thumb/v7e-m/fpv4-sp/hard/libc.a(lib_a-exit.o) (__call_exitprocs)
/home/bhavya/Downloads/1/plugins/fr.ac6.mcu.externaltools.arm-none.linux64_1.17.0.201812190825/tools/compiler/bin/../lib/gcc/arm-none-eabi/7.3.1/../../../../arm-none-eabi/lib/thumb/v7e-m/fpv4-sp/hard/libc.a(lib_a-atexit.o)
                              /home/bhavya/Downloads/1/plugins/fr.ac6.mcu.externaltools.arm-none.linux64_1.17.0.201812190825/tools/compiler/bin/../lib/gcc/arm-none-eabi/7.3.1/../../../../arm-none-eabi/lib/thumb/v7e-m/fpv4-sp/hard/libc.a(lib_a-__call_atexit.o) (atexit)
/home/bhavya/Downloads/1/plugins/fr.ac6.mcu.externaltools.arm-none.linux64_1.17.0.201812190825/tools/compiler/bin/../lib/gcc/arm-none-eabi/7.3.1/../../../../arm-none-eabi/lib/thumb/v7e-m/fpv4-sp/hard/libc.a(lib_a-fini.o)
                              /home/bhavya/Downloads/1/plugins/fr.ac6.mcu.externaltools.arm-none.linux64_1.17.0.201812190825/tools/compiler/bin/../lib/gcc/arm-none-eabi/7.3.1/../../../../arm-none-eabi/lib/thumb/v7e-m/fpv4-sp/hard/libc.a(lib_a-__call_atexit.o) (__libc_fini_array)
/home/bhavya/Downloads/1/plugins/fr.ac6.mcu.externaltools.arm-none.linux64_1.17.0.201812190825/tools/compiler/bin/../lib/gcc/arm-none-eabi/7.3.1/../../../../arm-none-eabi/lib/thumb/v7e-m/fpv4-sp/hard/libc.a(lib_a-lock.o)
                              /home/bhavya/Downloads/1/plugins/fr.ac6.mcu.externaltools.arm-none.linux64_1.17.0.201812190825/tools/compiler/bin/../lib/gcc/arm-none-eabi/7.3.1/../../../../arm-none-eabi/lib/thumb/v7e-m/fpv4-sp/hard/libc.a(lib_a-__call_atexit.o) (__retarget_lock_acquire_recursive)
/home/bhavya/Downloads/1/plugins/fr.ac6.mcu.externaltools.arm-none.linux64_1.17.0.201812190825/tools/compiler/bin/../lib/gcc/arm-none-eabi/7.3.1/../../../../arm-none-eabi/lib/thumb/v7e-m/fpv4-sp/hard/libc.a(lib_a-__atexit.o)
                              /home/bhavya/Downloads/1/plugins/fr.ac6.mcu.externaltools.arm-none.linux64_1.17.0.201812190825/tools/compiler/bin/../lib/gcc/arm-none-eabi/7.3.1/../../../../arm-none-eabi/lib/thumb/v7e-m/fpv4-sp/hard/libc.a(lib_a-atexit.o) (__register_exitproc)

Allocating common symbols
Common symbol       size              file

PECC7               0x4               Ventilation/src/MAIN/MAIN_Global_Variables_Init.o
T1REL               0x4               Ventilation/src/MAIN/MAIN_Global_Variables_Init.o
T2                  0x4               Ventilation/src/MAIN/MAIN_Global_Variables_Init.o
DP8                 0x4               Ventilation/src/MAIN/MAIN_Global_Variables_Init.o
DP5                 0x4               Ventilation/src/MAIN/MAIN_Global_Variables_Init.o
SYS_Num_Keyboard    0x270             Ventilation/src/MAIN/MAIN_Global_Variables_Init.o
T7R                 0x4               Ventilation/src/MAIN/MAIN_Global_Variables_Init.o
S0TBUF              0x4               Ventilation/src/MAIN/MAIN_Global_Variables_Init.o
XIR2SET             0x4               Ventilation/src/MAIN/MAIN_Global_Variables_Init.o
TIM_TableOfCntAndDecnt
                    0x630             Ventilation/src/MAIN/MAIN_Global_Variables_Init.o
XSSCRB              0x4               Ventilation/src/MAIN/MAIN_Global_Variables_Init.o
ADEIC               0x4               Ventilation/src/MAIN/MAIN_Global_Variables_Init.o
__lock___atexit_recursive_mutex
                    0x1               /home/bhavya/Downloads/1/plugins/fr.ac6.mcu.externaltools.arm-none.linux64_1.17.0.201812190825/tools/compiler/bin/../lib/gcc/arm-none-eabi/7.3.1/../../../../arm-none-eabi/lib/thumb/v7e-m/fpv4-sp/hard/libc.a(lib_a-lock.o)
EEP_DB_TREND        0x4               Ventilation/src/DATABASE/DB_TrendWrite.o
PECC0               0x4               Ventilation/src/MAIN/MAIN_Global_Variables_Init.o
T4IE                0x4               Ventilation/src/MAIN/MAIN_Global_Variables_Init.o
VEN_SIMV_Cycle_History
                    0x18              Ventilation/src/ACTUATOR/ACT_BlowerCmd.o
__lock___arc4random_mutex
                    0x1               /home/bhavya/Downloads/1/plugins/fr.ac6.mcu.externaltools.arm-none.linux64_1.17.0.201812190825/tools/compiler/bin/../lib/gcc/arm-none-eabi/7.3.1/../../../../arm-none-eabi/lib/thumb/v7e-m/fpv4-sp/hard/libc.a(lib_a-lock.o)
SRCP7               0x4               Ventilation/src/MAIN/MAIN_Global_Variables_Init.o
SSCRIC              0x4               Ventilation/src/MAIN/MAIN_Global_Variables_Init.o
XIR3SET             0x4               Ventilation/src/MAIN/MAIN_Global_Variables_Init.o
IEN                 0x4               Ventilation/src/MAIN/MAIN_Global_Variables_Init.o
CYC_ActiveModeState
                    0x6               Ventilation/src/VENTILATION/VEN_Cycles.o
nbre_de_debordement_timer
                    0x4               Ventilation/src/MAIN/MAIN_Global_Variables_Init.o
XP1IE               0x4               Ventilation/src/MAIN/MAIN_Global_Variables_Init.o
T4                  0x4               Ventilation/src/MAIN/MAIN_Global_Variables_Init.o
VEN_MesureFlowQexh  0x118             Ventilation/src/ACTUATOR/ACT_BlowerCmd.o
S0TBIR              0x4               Ventilation/src/MAIN/MAIN_Global_Variables_Init.o
T8REL               0x4               Ventilation/src/MAIN/MAIN_Global_Variables_Init.o
DSTP7               0x4               Ventilation/src/MAIN/MAIN_Global_Variables_Init.o
PW3                 0x4               Ventilation/src/MAIN/MAIN_Global_Variables_Init.o
XP2IE               0x4               Ventilation/src/MAIN/MAIN_Global_Variables_Init.o
SSCCON              0x4               Ventilation/src/MAIN/MAIN_Global_Variables_Init.o
DB_Rtc              0x34              Ventilation/src/DATABASE/DB_RTCWrite.o
S0RIC               0x4               Ventilation/src/MAIN/MAIN_Global_Variables_Init.o
CMP_VentilReport_Array
                    0x6c              Ventilation/src/VENTILATION/VEN_Compute.o
XSSCTB              0x4               Ventilation/src/MAIN/MAIN_Global_Variables_Init.o
ODP4                0x4               Ventilation/src/MAIN/MAIN_Global_Variables_Init.o
P8                  0x4               Ventilation/src/MAIN/MAIN_Global_Variables_Init.o
CCM2                0x4               Ventilation/src/MAIN/MAIN_Global_Variables_Init.o
temporisation_terminee
                    0x4               Ventilation/src/MAIN/MAIN_Global_Variables_Init.o
T2R                 0x4               Ventilation/src/MAIN/MAIN_Global_Variables_Init.o
XP2IC               0x4               Ventilation/src/MAIN/MAIN_Global_Variables_Init.o
ODP6                0x4               Ventilation/src/MAIN/MAIN_Global_Variables_Init.o
P6                  0x4               Ventilation/src/MAIN/MAIN_Global_Variables_Init.o
DB_EepConfigDbError
                    0x1a0             Ventilation/src/DATABASE/DB_StartInitDb.o
T7REL               0x4               Ventilation/src/MAIN/MAIN_Global_Variables_Init.o
SSCTIC              0x4               Ventilation/src/MAIN/MAIN_Global_Variables_Init.o
CCM7                0x4               Ventilation/src/MAIN/MAIN_Global_Variables_Init.o
DB_EepTrendDbError  0xac              Ventilation/src/DATABASE/DB_StartInitDb.o
ADCIC               0x4               Ventilation/src/MAIN/MAIN_Global_Variables_Init.o
WDTCON              0x4               Ventilation/src/MAIN/MAIN_Global_Variables_Init.o
PWMCON0             0x4               Ventilation/src/MAIN/MAIN_Global_Variables_Init.o
S0TBIE              0x4               Ventilation/src/MAIN/MAIN_Global_Variables_Init.o
S0CON               0x4               Ventilation/src/MAIN/MAIN_Global_Variables_Init.o
T6IC                0x4               Ventilation/src/MAIN/MAIN_Global_Variables_Init.o
T1IR                0x4               Ventilation/src/MAIN/MAIN_Global_Variables_Init.o
T5                  0x4               Ventilation/src/MAIN/MAIN_Global_Variables_Init.o
P2                  0x4               Ventilation/src/MAIN/MAIN_Global_Variables_Init.o
T3IR                0x4               Ventilation/src/MAIN/MAIN_Global_Variables_Init.o
XIR2CLR             0x4               Ventilation/src/MAIN/MAIN_Global_Variables_Init.o
DataFrameUART1      0x3               Ventilation/src/MAIN/MAIN_Global_Variables_Init.o
VEN_MesureFlowQinsp
                    0x118             Ventilation/src/ACTUATOR/ACT_BlowerCmd.o
__lock___env_recursive_mutex
                    0x1               /home/bhavya/Downloads/1/plugins/fr.ac6.mcu.externaltools.arm-none.linux64_1.17.0.201812190825/tools/compiler/bin/../lib/gcc/arm-none-eabi/7.3.1/../../../../arm-none-eabi/lib/thumb/v7e-m/fpv4-sp/hard/libc.a(lib_a-lock.o)
DP4                 0x4               Ventilation/src/MAIN/MAIN_Global_Variables_Init.o
__lock___sinit_recursive_mutex
                    0x1               /home/bhavya/Downloads/1/plugins/fr.ac6.mcu.externaltools.arm-none.linux64_1.17.0.201812190825/tools/compiler/bin/../lib/gcc/arm-none-eabi/7.3.1/../../../../arm-none-eabi/lib/thumb/v7e-m/fpv4-sp/hard/libc.a(lib_a-lock.o)
Setup_ListOfActivateJob
                    0x4               Ventilation/src/SCHEDULER/SCHED_Setup_entry.o
S0BG                0x4               Ventilation/src/MAIN/MAIN_Global_Variables_Init.o
XSSCCONSET          0x4               Ventilation/src/MAIN/MAIN_Global_Variables_Init.o
S0RBUF              0x4               Ventilation/src/MAIN/MAIN_Global_Variables_Init.o
ADEIE               0x4               Ventilation/src/MAIN/MAIN_Global_Variables_Init.o
PUST_ERROR          0x4               Ventilation/src/MAIN/MAIN_Global_Variables_Init.o
T2CON               0x4               Ventilation/src/MAIN/MAIN_Global_Variables_Init.o
CC0IE               0x4               Ventilation/src/MAIN/MAIN_Global_Variables_Init.o
__lock___malloc_recursive_mutex
                    0x1               /home/bhavya/Downloads/1/plugins/fr.ac6.mcu.externaltools.arm-none.linux64_1.17.0.201812190825/tools/compiler/bin/../lib/gcc/arm-none-eabi/7.3.1/../../../../arm-none-eabi/lib/thumb/v7e-m/fpv4-sp/hard/libc.a(lib_a-lock.o)
VEN_MesurePressure  0x118             Ventilation/src/ACTUATOR/ACT_BlowerCmd.o
SRCP6               0x4               Ventilation/src/MAIN/MAIN_Global_Variables_Init.o
XP3IC               0x4               Ventilation/src/MAIN/MAIN_Global_Variables_Init.o
DIS_FifoDisplay     0xcb20            Ventilation/src/MAIN/MAIN_Global_Variables_Init.o
AD_Digit            0x40              Ventilation/src/SET_UP/SET_CalibrationManagement.o
T1IE                0x4               Ventilation/src/MAIN/MAIN_Global_Variables_Init.o
DSTP6               0x4               Ventilation/src/MAIN/MAIN_Global_Variables_Init.o
ADCON               0x4               Ventilation/src/MAIN/MAIN_Global_Variables_Init.o
T3                  0x4               Ventilation/src/MAIN/MAIN_Global_Variables_Init.o
TIM_MinuteTableOfCntAndDecnt
                    0x2f8             Ventilation/src/MAIN/MAIN_Global_Variables_Init.o
T5IE                0x4               Ventilation/src/MAIN/MAIN_Global_Variables_Init.o
dernier_chargement_T2
                    0x4               Ventilation/src/MAIN/MAIN_Global_Variables_Init.o
S0TBIC              0x4               Ventilation/src/MAIN/MAIN_Global_Variables_Init.o
TestSchedulerStep   0x4               src/MAIN.o
SSCBSY              0x4               Ventilation/src/MAIN/MAIN_Global_Variables_Init.o
ODP3                0x4               Ventilation/src/MAIN/MAIN_Global_Variables_Init.o
DB_Current          0xe0              Ventilation/src/DATABASE/DB_CurrentRead.o
CCM0                0x4               Ventilation/src/MAIN/MAIN_Global_Variables_Init.o
PECC2               0x4               Ventilation/src/MAIN/MAIN_Global_Variables_Init.o
CC10IR              0x4               Ventilation/src/MAIN/MAIN_Global_Variables_Init.o
T7                  0x4               Ventilation/src/MAIN/MAIN_Global_Variables_Init.o
P4                  0x4               Ventilation/src/MAIN/MAIN_Global_Variables_Init.o
CC10IE              0x4               Ventilation/src/MAIN/MAIN_Global_Variables_Init.o
SSCBR               0x4               Ventilation/src/MAIN/MAIN_Global_Variables_Init.o
T6CON               0x4               Ventilation/src/MAIN/MAIN_Global_Variables_Init.o
T01CON              0x4               Ventilation/src/MAIN/MAIN_Global_Variables_Init.o
T3CON               0x4               Ventilation/src/MAIN/MAIN_Global_Variables_Init.o
T8R                 0x4               Ventilation/src/MAIN/MAIN_Global_Variables_Init.o
XIR3CLR             0x4               Ventilation/src/MAIN/MAIN_Global_Variables_Init.o
T5CON               0x4               Ventilation/src/MAIN/MAIN_Global_Variables_Init.o
ADCIR               0x4               Ventilation/src/MAIN/MAIN_Global_Variables_Init.o
XP2IR               0x4               Ventilation/src/MAIN/MAIN_Global_Variables_Init.o
DSTP0               0x4               Ventilation/src/MAIN/MAIN_Global_Variables_Init.o
XSSCCONCLR          0x4               Ventilation/src/MAIN/MAIN_Global_Variables_Init.o
T1                  0x4               Ventilation/src/MAIN/MAIN_Global_Variables_Init.o
CC0IC               0x4               Ventilation/src/MAIN/MAIN_Global_Variables_Init.o
XP1IC               0x4               Ventilation/src/MAIN/MAIN_Global_Variables_Init.o
XS1RBUF             0x4               Ventilation/src/MAIN/MAIN_Global_Variables_Init.o
XIR1SET             0x4               Ventilation/src/MAIN/MAIN_Global_Variables_Init.o
ADEIR               0x4               Ventilation/src/MAIN/MAIN_Global_Variables_Init.o
T2IC                0x4               Ventilation/src/MAIN/MAIN_Global_Variables_Init.o
P3                  0x4               Ventilation/src/MAIN/MAIN_Global_Variables_Init.o
cpt_de_debordement_timer
                    0x4               Ventilation/src/MAIN/MAIN_Global_Variables_Init.o
DB_Control          0x1b0             Ventilation/src/DATABASE/DB_ControlRead.o
DIS_FifoIdxWrite    0x4               Ventilation/src/MAIN/MAIN_Global_Variables_Init.o
T78CON              0x4               Ventilation/src/MAIN/MAIN_Global_Variables_Init.o
EEP_DB_Config       0x4               Ventilation/src/DATABASE/DB_ConfigRead.o
SRCP0               0x4               Ventilation/src/MAIN/MAIN_Global_Variables_Init.o
XIR0SEL             0x4               Ventilation/src/MAIN/MAIN_Global_Variables_Init.o
SSCTB               0x4               Ventilation/src/MAIN/MAIN_Global_Variables_Init.o
XSSCBR              0x4               Ventilation/src/MAIN/MAIN_Global_Variables_Init.o
DIS_FifoOverflow    0x1               Ventilation/src/MAIN/MAIN_Global_Variables_Init.o
T1R                 0x4               Ventilation/src/MAIN/MAIN_Global_Variables_Init.o
T4IC                0x4               Ventilation/src/MAIN/MAIN_Global_Variables_Init.o
DP3                 0x4               Ventilation/src/MAIN/MAIN_Global_Variables_Init.o
CC0                 0x4               Ventilation/src/MAIN/MAIN_Global_Variables_Init.o
T1IC                0x4               Ventilation/src/MAIN/MAIN_Global_Variables_Init.o
DP2                 0x4               Ventilation/src/MAIN/MAIN_Global_Variables_Init.o
DP7                 0x4               Ventilation/src/MAIN/MAIN_Global_Variables_Init.o
XP1IR               0x4               Ventilation/src/MAIN/MAIN_Global_Variables_Init.o
T2IR                0x4               Ventilation/src/MAIN/MAIN_Global_Variables_Init.o
T5IC                0x4               Ventilation/src/MAIN/MAIN_Global_Variables_Init.o
T5R                 0x4               Ventilation/src/MAIN/MAIN_Global_Variables_Init.o
SSCRB               0x4               Ventilation/src/MAIN/MAIN_Global_Variables_Init.o
DB_Compute          0x154             Ventilation/src/DATABASE/DB_ComputeWrite.o
SRCP2               0x4               Ventilation/src/MAIN/MAIN_Global_Variables_Init.o
CYC_NextModeState   0x6               Ventilation/src/VENTILATION/VEN_Cycles.o
__lock___at_quick_exit_mutex
                    0x1               /home/bhavya/Downloads/1/plugins/fr.ac6.mcu.externaltools.arm-none.linux64_1.17.0.201812190825/tools/compiler/bin/../lib/gcc/arm-none-eabi/7.3.1/../../../../arm-none-eabi/lib/thumb/v7e-m/fpv4-sp/hard/libc.a(lib_a-lock.o)
PP3                 0x4               Ventilation/src/MAIN/MAIN_Global_Variables_Init.o
ADST                0x4               Ventilation/src/MAIN/MAIN_Global_Variables_Init.o
CAPREL              0x4               Ventilation/src/MAIN/MAIN_Global_Variables_Init.o
CC10IC              0x4               Ventilation/src/MAIN/MAIN_Global_Variables_Init.o
DSTP2               0x4               Ventilation/src/MAIN/MAIN_Global_Variables_Init.o
XP0IC               0x4               Ventilation/src/MAIN/MAIN_Global_Variables_Init.o
ODP5                0x4               Ventilation/src/MAIN/MAIN_Global_Variables_Init.o
ODP2                0x4               Ventilation/src/MAIN/MAIN_Global_Variables_Init.o
T4R                 0x4               Ventilation/src/MAIN/MAIN_Global_Variables_Init.o
DP6                 0x4               Ventilation/src/MAIN/MAIN_Global_Variables_Init.o
PECC6               0x4               Ventilation/src/MAIN/MAIN_Global_Variables_Init.o
ODP7                0x4               Ventilation/src/MAIN/MAIN_Global_Variables_Init.o
XS1PORT             0x4               Ventilation/src/MAIN/MAIN_Global_Variables_Init.o
P7                  0x4               Ventilation/src/MAIN/MAIN_Global_Variables_Init.o
DIS_FifoIdxRead     0x4               Ventilation/src/MAIN/MAIN_Global_Variables_Init.o
Ventilation_TimesOfTask
                    0x180             src/MAIN.o
T2IE                0x4               Ventilation/src/MAIN/MAIN_Global_Variables_Init.o
__lock___dd_hash_mutex
                    0x1               /home/bhavya/Downloads/1/plugins/fr.ac6.mcu.externaltools.arm-none.linux64_1.17.0.201812190825/tools/compiler/bin/../lib/gcc/arm-none-eabi/7.3.1/../../../../arm-none-eabi/lib/thumb/v7e-m/fpv4-sp/hard/libc.a(lib_a-lock.o)
__lock___tz_mutex   0x1               /home/bhavya/Downloads/1/plugins/fr.ac6.mcu.externaltools.arm-none.linux64_1.17.0.201812190825/tools/compiler/bin/../lib/gcc/arm-none-eabi/7.3.1/../../../../arm-none-eabi/lib/thumb/v7e-m/fpv4-sp/hard/libc.a(lib_a-lock.o)
CC0IR               0x4               Ventilation/src/MAIN/MAIN_Global_Variables_Init.o
PWMCON1             0x4               Ventilation/src/MAIN/MAIN_Global_Variables_Init.o
P5                  0x4               Ventilation/src/MAIN/MAIN_Global_Variables_Init.o
CC28                0x4               Ventilation/src/MAIN/MAIN_Global_Variables_Init.o
XIR1CLR             0x4               Ventilation/src/MAIN/MAIN_Global_Variables_Init.o
T4CON               0x4               Ventilation/src/MAIN/MAIN_Global_Variables_Init.o
ODP8                0x4               Ventilation/src/MAIN/MAIN_Global_Variables_Init.o
XSSCPORT            0x4               Ventilation/src/MAIN/MAIN_Global_Variables_Init.o
DB_AlarmStatus      0x180             Ventilation/src/DATABASE/DB_StartInitDb.o
__lock___sfp_recursive_mutex
                    0x1               /home/bhavya/Downloads/1/plugins/fr.ac6.mcu.externaltools.arm-none.linux64_1.17.0.201812190825/tools/compiler/bin/../lib/gcc/arm-none-eabi/7.3.1/../../../../arm-none-eabi/lib/thumb/v7e-m/fpv4-sp/hard/libc.a(lib_a-lock.o)

Discarded input sections

 .text          0x0000000000000000        0x0 /home/bhavya/Downloads/1/plugins/fr.ac6.mcu.externaltools.arm-none.linux64_1.17.0.201812190825/tools/compiler/bin/../lib/gcc/arm-none-eabi/7.3.1/thumb/v7e-m/fpv4-sp/hard/crti.o
 .data          0x0000000000000000        0x0 /home/bhavya/Downloads/1/plugins/fr.ac6.mcu.externaltools.arm-none.linux64_1.17.0.201812190825/tools/compiler/bin/../lib/gcc/arm-none-eabi/7.3.1/thumb/v7e-m/fpv4-sp/hard/crti.o
 .bss           0x0000000000000000        0x0 /home/bhavya/Downloads/1/plugins/fr.ac6.mcu.externaltools.arm-none.linux64_1.17.0.201812190825/tools/compiler/bin/../lib/gcc/arm-none-eabi/7.3.1/thumb/v7e-m/fpv4-sp/hard/crti.o
 .data          0x0000000000000000        0x4 /home/bhavya/Downloads/1/plugins/fr.ac6.mcu.externaltools.arm-none.linux64_1.17.0.201812190825/tools/compiler/bin/../lib/gcc/arm-none-eabi/7.3.1/thumb/v7e-m/fpv4-sp/hard/crtbegin.o
 .text          0x0000000000000000       0x74 /home/bhavya/Downloads/1/plugins/fr.ac6.mcu.externaltools.arm-none.linux64_1.17.0.201812190825/tools/compiler/bin/../lib/gcc/arm-none-eabi/7.3.1/../../../../arm-none-eabi/lib/thumb/v7e-m/fpv4-sp/hard/crt0.o
 .data          0x0000000000000000        0x0 /home/bhavya/Downloads/1/plugins/fr.ac6.mcu.externaltools.arm-none.linux64_1.17.0.201812190825/tools/compiler/bin/../lib/gcc/arm-none-eabi/7.3.1/../../../../arm-none-eabi/lib/thumb/v7e-m/fpv4-sp/hard/crt0.o
 .bss           0x0000000000000000        0x0 /home/bhavya/Downloads/1/plugins/fr.ac6.mcu.externaltools.arm-none.linux64_1.17.0.201812190825/tools/compiler/bin/../lib/gcc/arm-none-eabi/7.3.1/../../../../arm-none-eabi/lib/thumb/v7e-m/fpv4-sp/hard/crt0.o
 .ARM.extab     0x0000000000000000        0x0 /home/bhavya/Downloads/1/plugins/fr.ac6.mcu.externaltools.arm-none.linux64_1.17.0.201812190825/tools/compiler/bin/../lib/gcc/arm-none-eabi/7.3.1/../../../../arm-none-eabi/lib/thumb/v7e-m/fpv4-sp/hard/crt0.o
 .ARM.exidx     0x0000000000000000        0x8 /home/bhavya/Downloads/1/plugins/fr.ac6.mcu.externaltools.arm-none.linux64_1.17.0.201812190825/tools/compiler/bin/../lib/gcc/arm-none-eabi/7.3.1/../../../../arm-none-eabi/lib/thumb/v7e-m/fpv4-sp/hard/crt0.o
 .ARM.attributes
                0x0000000000000000       0x20 /home/bhavya/Downloads/1/plugins/fr.ac6.mcu.externaltools.arm-none.linux64_1.17.0.201812190825/tools/compiler/bin/../lib/gcc/arm-none-eabi/7.3.1/../../../../arm-none-eabi/lib/thumb/v7e-m/fpv4-sp/hard/crt0.o
 .group         0x0000000000000000        0xc Ventilation/src/ACTUATOR/ACT_BlowerCmd.o
 .group         0x0000000000000000        0xc Ventilation/src/ACTUATOR/ACT_BlowerCmd.o
 .group         0x0000000000000000        0xc Ventilation/src/ACTUATOR/ACT_BlowerCmd.o
 .group         0x0000000000000000        0xc Ventilation/src/ACTUATOR/ACT_BlowerCmd.o
 .text          0x0000000000000000        0x0 Ventilation/src/ACTUATOR/ACT_BlowerCmd.o
 .rodata        0x0000000000000000        0x4 Ventilation/src/ACTUATOR/ACT_BlowerCmd.o
 .text.ACT_BlowerCmd
                0x0000000000000000       0x1a Ventilation/src/ACTUATOR/ACT_BlowerCmd.o
 COMMON         0x0000000000000000      0x360 Ventilation/src/ACTUATOR/ACT_BlowerCmd.o
 .group         0x0000000000000000        0xc Ventilation/src/ACTUATOR/ACT_BrakePower.o
 .group         0x0000000000000000        0xc Ventilation/src/ACTUATOR/ACT_BrakePower.o
 .group         0x0000000000000000        0xc Ventilation/src/ACTUATOR/ACT_BrakePower.o
 .text          0x0000000000000000        0x0 Ventilation/src/ACTUATOR/ACT_BrakePower.o
 .debug_macro   0x0000000000000000      0xa66 Ventilation/src/ACTUATOR/ACT_BrakePower.o
 .debug_macro   0x0000000000000000       0x1c Ventilation/src/ACTUATOR/ACT_BrakePower.o
 .debug_macro   0x0000000000000000      0x280 Ventilation/src/ACTUATOR/ACT_BrakePower.o
 .group         0x0000000000000000        0xc Ventilation/src/DATABASE/DB_AlarmInfoWrite.o
 .group         0x0000000000000000        0xc Ventilation/src/DATABASE/DB_AlarmInfoWrite.o
 .text          0x0000000000000000        0x0 Ventilation/src/DATABASE/DB_AlarmInfoWrite.o
 .data          0x0000000000000000        0x0 Ventilation/src/DATABASE/DB_AlarmInfoWrite.o
 .bss           0x0000000000000000        0x0 Ventilation/src/DATABASE/DB_AlarmInfoWrite.o
 .debug_macro   0x0000000000000000      0xa66 Ventilation/src/DATABASE/DB_AlarmInfoWrite.o
 .debug_macro   0x0000000000000000       0x1c Ventilation/src/DATABASE/DB_AlarmInfoWrite.o
 .group         0x0000000000000000        0xc Ventilation/src/DATABASE/DB_AlarmStatusWrite.o
 .group         0x0000000000000000        0xc Ventilation/src/DATABASE/DB_AlarmStatusWrite.o
 .text          0x0000000000000000        0x0 Ventilation/src/DATABASE/DB_AlarmStatusWrite.o
 .data          0x0000000000000000        0x0 Ventilation/src/DATABASE/DB_AlarmStatusWrite.o
 .bss           0x0000000000000000        0x0 Ventilation/src/DATABASE/DB_AlarmStatusWrite.o
 .debug_macro   0x0000000000000000      0xa66 Ventilation/src/DATABASE/DB_AlarmStatusWrite.o
 .debug_macro   0x0000000000000000       0x1c Ventilation/src/DATABASE/DB_AlarmStatusWrite.o
 .group         0x0000000000000000        0xc Ventilation/src/DATABASE/DB_ComputeRead.o
 .group         0x0000000000000000        0xc Ventilation/src/DATABASE/DB_ComputeRead.o
 .text          0x0000000000000000        0x0 Ventilation/src/DATABASE/DB_ComputeRead.o
 .data          0x0000000000000000        0x0 Ventilation/src/DATABASE/DB_ComputeRead.o
 .bss           0x0000000000000000        0x0 Ventilation/src/DATABASE/DB_ComputeRead.o
 .debug_macro   0x0000000000000000      0xa66 Ventilation/src/DATABASE/DB_ComputeRead.o
 .debug_macro   0x0000000000000000       0x1c Ventilation/src/DATABASE/DB_ComputeRead.o
 .group         0x0000000000000000        0xc Ventilation/src/DATABASE/DB_ComputeWrite.o
 .group         0x0000000000000000        0xc Ventilation/src/DATABASE/DB_ComputeWrite.o
 .group         0x0000000000000000        0xc Ventilation/src/DATABASE/DB_ComputeWrite.o
 .group         0x0000000000000000        0xc Ventilation/src/DATABASE/DB_ComputeWrite.o
 .text          0x0000000000000000        0x0 Ventilation/src/DATABASE/DB_ComputeWrite.o
 .data          0x0000000000000000        0x0 Ventilation/src/DATABASE/DB_ComputeWrite.o
 .bss           0x0000000000000000        0x0 Ventilation/src/DATABASE/DB_ComputeWrite.o
 .debug_macro   0x0000000000000000      0xa66 Ventilation/src/DATABASE/DB_ComputeWrite.o
 .debug_macro   0x0000000000000000       0x1c Ventilation/src/DATABASE/DB_ComputeWrite.o
 .group         0x0000000000000000        0xc Ventilation/src/DATABASE/DB_ConfigRead.o
 .group         0x0000000000000000        0xc Ventilation/src/DATABASE/DB_ConfigRead.o
 .text          0x0000000000000000        0x0 Ventilation/src/DATABASE/DB_ConfigRead.o
 .data          0x0000000000000000        0x0 Ventilation/src/DATABASE/DB_ConfigRead.o
 .bss           0x0000000000000000        0x0 Ventilation/src/DATABASE/DB_ConfigRead.o
 .debug_macro   0x0000000000000000      0xa66 Ventilation/src/DATABASE/DB_ConfigRead.o
 .debug_macro   0x0000000000000000       0x1c Ventilation/src/DATABASE/DB_ConfigRead.o
 .group         0x0000000000000000        0xc Ventilation/src/DATABASE/DB_ConfigWrite.o
 .group         0x0000000000000000        0xc Ventilation/src/DATABASE/DB_ConfigWrite.o
 .group         0x0000000000000000        0xc Ventilation/src/DATABASE/DB_ConfigWrite.o
 .group         0x0000000000000000        0xc Ventilation/src/DATABASE/DB_ConfigWrite.o
 .text          0x0000000000000000        0x0 Ventilation/src/DATABASE/DB_ConfigWrite.o
 .data          0x0000000000000000        0x0 Ventilation/src/DATABASE/DB_ConfigWrite.o
 .bss           0x0000000000000000        0x0 Ventilation/src/DATABASE/DB_ConfigWrite.o
 .text.DB_ConfigWrite
                0x0000000000000000       0xdc Ventilation/src/DATABASE/DB_ConfigWrite.o
 .debug_info    0x0000000000000000      0xc2c Ventilation/src/DATABASE/DB_ConfigWrite.o
 .debug_abbrev  0x0000000000000000      0x12f Ventilation/src/DATABASE/DB_ConfigWrite.o
 .debug_aranges
                0x0000000000000000       0x20 Ventilation/src/DATABASE/DB_ConfigWrite.o
 .debug_ranges  0x0000000000000000       0x10 Ventilation/src/DATABASE/DB_ConfigWrite.o
 .debug_macro   0x0000000000000000       0x8d Ventilation/src/DATABASE/DB_ConfigWrite.o
 .debug_macro   0x0000000000000000      0xa66 Ventilation/src/DATABASE/DB_ConfigWrite.o
 .debug_macro   0x0000000000000000       0x1c Ventilation/src/DATABASE/DB_ConfigWrite.o
 .debug_macro   0x0000000000000000       0x16 Ventilation/src/DATABASE/DB_ConfigWrite.o
 .debug_macro   0x0000000000000000      0x1a2 Ventilation/src/DATABASE/DB_ConfigWrite.o
 .debug_line    0x0000000000000000      0x341 Ventilation/src/DATABASE/DB_ConfigWrite.o
 .debug_str     0x0000000000000000     0x54d1 Ventilation/src/DATABASE/DB_ConfigWrite.o
 .comment       0x0000000000000000       0x80 Ventilation/src/DATABASE/DB_ConfigWrite.o
 .debug_frame   0x0000000000000000       0x34 Ventilation/src/DATABASE/DB_ConfigWrite.o
 .ARM.attributes
                0x0000000000000000       0x39 Ventilation/src/DATABASE/DB_ConfigWrite.o
 .group         0x0000000000000000        0xc Ventilation/src/DATABASE/DB_ControlRead.o
 .group         0x0000000000000000        0xc Ventilation/src/DATABASE/DB_ControlRead.o
 .text          0x0000000000000000        0x0 Ventilation/src/DATABASE/DB_ControlRead.o
 .data          0x0000000000000000        0x0 Ventilation/src/DATABASE/DB_ControlRead.o
 .bss           0x0000000000000000        0x0 Ventilation/src/DATABASE/DB_ControlRead.o
 .debug_macro   0x0000000000000000      0xa66 Ventilation/src/DATABASE/DB_ControlRead.o
 .debug_macro   0x0000000000000000       0x1c Ventilation/src/DATABASE/DB_ControlRead.o
 .group         0x0000000000000000        0xc Ventilation/src/DATABASE/DB_ControlWrite.o
 .group         0x0000000000000000        0xc Ventilation/src/DATABASE/DB_ControlWrite.o
 .group         0x0000000000000000        0xc Ventilation/src/DATABASE/DB_ControlWrite.o
 .group         0x0000000000000000        0xc Ventilation/src/DATABASE/DB_ControlWrite.o
 .text          0x0000000000000000        0x0 Ventilation/src/DATABASE/DB_ControlWrite.o
 .data          0x0000000000000000        0x0 Ventilation/src/DATABASE/DB_ControlWrite.o
 .bss           0x0000000000000000        0x0 Ventilation/src/DATABASE/DB_ControlWrite.o
 .debug_macro   0x0000000000000000      0xa66 Ventilation/src/DATABASE/DB_ControlWrite.o
 .debug_macro   0x0000000000000000       0x1c Ventilation/src/DATABASE/DB_ControlWrite.o
 .debug_macro   0x0000000000000000       0x16 Ventilation/src/DATABASE/DB_ControlWrite.o
 .debug_macro   0x0000000000000000      0x1a2 Ventilation/src/DATABASE/DB_ControlWrite.o
 .group         0x0000000000000000        0xc Ventilation/src/DATABASE/DB_CurrentRead.o
 .group         0x0000000000000000        0xc Ventilation/src/DATABASE/DB_CurrentRead.o
 .text          0x0000000000000000        0x0 Ventilation/src/DATABASE/DB_CurrentRead.o
 .data          0x0000000000000000        0x0 Ventilation/src/DATABASE/DB_CurrentRead.o
 .bss           0x0000000000000000        0x0 Ventilation/src/DATABASE/DB_CurrentRead.o
 .debug_macro   0x0000000000000000      0xa66 Ventilation/src/DATABASE/DB_CurrentRead.o
 .debug_macro   0x0000000000000000       0x1c Ventilation/src/DATABASE/DB_CurrentRead.o
 .group         0x0000000000000000        0xc Ventilation/src/DATABASE/DB_EventMngt.o
 .group         0x0000000000000000        0xc Ventilation/src/DATABASE/DB_EventMngt.o
 .group         0x0000000000000000        0xc Ventilation/src/DATABASE/DB_EventMngt.o
 .text          0x0000000000000000        0x0 Ventilation/src/DATABASE/DB_EventMngt.o
 .data          0x0000000000000000        0x0 Ventilation/src/DATABASE/DB_EventMngt.o
 .bss           0x0000000000000000        0x0 Ventilation/src/DATABASE/DB_EventMngt.o
 .debug_macro   0x0000000000000000      0xa66 Ventilation/src/DATABASE/DB_EventMngt.o
 .debug_macro   0x0000000000000000       0x1c Ventilation/src/DATABASE/DB_EventMngt.o
 .group         0x0000000000000000        0xc Ventilation/src/DATABASE/DB_MeasurementWrite.o
 .group         0x0000000000000000        0xc Ventilation/src/DATABASE/DB_MeasurementWrite.o
 .text          0x0000000000000000        0x0 Ventilation/src/DATABASE/DB_MeasurementWrite.o
 .data          0x0000000000000000        0x0 Ventilation/src/DATABASE/DB_MeasurementWrite.o
 .bss           0x0000000000000000        0x0 Ventilation/src/DATABASE/DB_MeasurementWrite.o
 .debug_macro   0x0000000000000000      0xa66 Ventilation/src/DATABASE/DB_MeasurementWrite.o
 .debug_macro   0x0000000000000000       0x1c Ventilation/src/DATABASE/DB_MeasurementWrite.o
 .group         0x0000000000000000        0xc Ventilation/src/DATABASE/DB_RTCRead.o
 .group         0x0000000000000000        0xc Ventilation/src/DATABASE/DB_RTCRead.o
 .text          0x0000000000000000        0x0 Ventilation/src/DATABASE/DB_RTCRead.o
 .data          0x0000000000000000        0x0 Ventilation/src/DATABASE/DB_RTCRead.o
 .bss           0x0000000000000000        0x0 Ventilation/src/DATABASE/DB_RTCRead.o
 .debug_macro   0x0000000000000000      0xa66 Ventilation/src/DATABASE/DB_RTCRead.o
 .debug_macro   0x0000000000000000       0x1c Ventilation/src/DATABASE/DB_RTCRead.o
 .group         0x0000000000000000        0xc Ventilation/src/DATABASE/DB_RTCWrite.o
 .group         0x0000000000000000        0xc Ventilation/src/DATABASE/DB_RTCWrite.o
 .group         0x0000000000000000        0xc Ventilation/src/DATABASE/DB_RTCWrite.o
 .group         0x0000000000000000        0xc Ventilation/src/DATABASE/DB_RTCWrite.o
 .group         0x0000000000000000        0xc Ventilation/src/DATABASE/DB_RTCWrite.o
 .text          0x0000000000000000        0x0 Ventilation/src/DATABASE/DB_RTCWrite.o
 .data          0x0000000000000000        0x0 Ventilation/src/DATABASE/DB_RTCWrite.o
 .bss           0x0000000000000000        0x0 Ventilation/src/DATABASE/DB_RTCWrite.o
 .debug_macro   0x0000000000000000      0xa66 Ventilation/src/DATABASE/DB_RTCWrite.o
 .debug_macro   0x0000000000000000       0x1c Ventilation/src/DATABASE/DB_RTCWrite.o
 .debug_macro   0x0000000000000000       0x16 Ventilation/src/DATABASE/DB_RTCWrite.o
 .debug_macro   0x0000000000000000      0x1a2 Ventilation/src/DATABASE/DB_RTCWrite.o
 .group         0x0000000000000000        0xc Ventilation/src/DATABASE/DB_StartInitDb.o
 .group         0x0000000000000000        0xc Ventilation/src/DATABASE/DB_StartInitDb.o
 .group         0x0000000000000000        0xc Ventilation/src/DATABASE/DB_StartInitDb.o
 .group         0x0000000000000000        0xc Ventilation/src/DATABASE/DB_StartInitDb.o
 .group         0x0000000000000000        0xc Ventilation/src/DATABASE/DB_StartInitDb.o
 .text          0x0000000000000000        0x0 Ventilation/src/DATABASE/DB_StartInitDb.o
 .data          0x0000000000000000      0x6d4 Ventilation/src/DATABASE/DB_StartInitDb.o
 .text.DB_StartInitDb
                0x0000000000000000        0xe Ventilation/src/DATABASE/DB_StartInitDb.o
 .debug_macro   0x0000000000000000      0xa66 Ventilation/src/DATABASE/DB_StartInitDb.o
 .debug_macro   0x0000000000000000       0x1c Ventilation/src/DATABASE/DB_StartInitDb.o
 .debug_macro   0x0000000000000000       0x16 Ventilation/src/DATABASE/DB_StartInitDb.o
 .group         0x0000000000000000        0xc Ventilation/src/DATABASE/DB_TrendWrite.o
 .group         0x0000000000000000        0xc Ventilation/src/DATABASE/DB_TrendWrite.o
 .group         0x0000000000000000        0xc Ventilation/src/DATABASE/DB_TrendWrite.o
 .group         0x0000000000000000        0xc Ventilation/src/DATABASE/DB_TrendWrite.o
 .text          0x0000000000000000        0x0 Ventilation/src/DATABASE/DB_TrendWrite.o
 .data          0x0000000000000000        0x0 Ventilation/src/DATABASE/DB_TrendWrite.o
 .bss           0x0000000000000000        0x0 Ventilation/src/DATABASE/DB_TrendWrite.o
 .debug_macro   0x0000000000000000      0xa66 Ventilation/src/DATABASE/DB_TrendWrite.o
 .debug_macro   0x0000000000000000       0x1c Ventilation/src/DATABASE/DB_TrendWrite.o
 .debug_macro   0x0000000000000000       0x16 Ventilation/src/DATABASE/DB_TrendWrite.o
 .debug_macro   0x0000000000000000      0x1a2 Ventilation/src/DATABASE/DB_TrendWrite.o
 COMMON         0x0000000000000000        0x4 Ventilation/src/DATABASE/DB_TrendWrite.o
 .group         0x0000000000000000        0xc Ventilation/src/DATABASE_SETTINGS/DB_IhmAccessParaDataBase.o
 .group         0x0000000000000000        0xc Ventilation/src/DATABASE_SETTINGS/DB_IhmAccessParaDataBase.o
 .group         0x0000000000000000        0xc Ventilation/src/DATABASE_SETTINGS/DB_IhmAccessParaDataBase.o
 .group         0x0000000000000000        0xc Ventilation/src/DATABASE_SETTINGS/DB_IhmAccessParaDataBase.o
 .text          0x0000000000000000        0x0 Ventilation/src/DATABASE_SETTINGS/DB_IhmAccessParaDataBase.o
 .data          0x0000000000000000        0x0 Ventilation/src/DATABASE_SETTINGS/DB_IhmAccessParaDataBase.o
 .bss           0x0000000000000000        0x0 Ventilation/src/DATABASE_SETTINGS/DB_IhmAccessParaDataBase.o
 .text.DB_IhmAccessParaDataBase
                0x0000000000000000      0x190 Ventilation/src/DATABASE_SETTINGS/DB_IhmAccessParaDataBase.o
 .debug_info    0x0000000000000000      0x6f1 Ventilation/src/DATABASE_SETTINGS/DB_IhmAccessParaDataBase.o
 .debug_abbrev  0x0000000000000000      0x127 Ventilation/src/DATABASE_SETTINGS/DB_IhmAccessParaDataBase.o
 .debug_aranges
                0x0000000000000000       0x20 Ventilation/src/DATABASE_SETTINGS/DB_IhmAccessParaDataBase.o
 .debug_ranges  0x0000000000000000       0x10 Ventilation/src/DATABASE_SETTINGS/DB_IhmAccessParaDataBase.o
 .debug_macro   0x0000000000000000       0x97 Ventilation/src/DATABASE_SETTINGS/DB_IhmAccessParaDataBase.o
 .debug_macro   0x0000000000000000      0xa66 Ventilation/src/DATABASE_SETTINGS/DB_IhmAccessParaDataBase.o
 .debug_macro   0x0000000000000000       0x1c Ventilation/src/DATABASE_SETTINGS/DB_IhmAccessParaDataBase.o
 .debug_macro   0x0000000000000000       0x16 Ventilation/src/DATABASE_SETTINGS/DB_IhmAccessParaDataBase.o
 .debug_macro   0x0000000000000000      0x1a2 Ventilation/src/DATABASE_SETTINGS/DB_IhmAccessParaDataBase.o
 .debug_line    0x0000000000000000      0x376 Ventilation/src/DATABASE_SETTINGS/DB_IhmAccessParaDataBase.o
 .debug_str     0x0000000000000000     0x411c Ventilation/src/DATABASE_SETTINGS/DB_IhmAccessParaDataBase.o
 .comment       0x0000000000000000       0x80 Ventilation/src/DATABASE_SETTINGS/DB_IhmAccessParaDataBase.o
 .debug_frame   0x0000000000000000       0x34 Ventilation/src/DATABASE_SETTINGS/DB_IhmAccessParaDataBase.o
 .ARM.attributes
                0x0000000000000000       0x39 Ventilation/src/DATABASE_SETTINGS/DB_IhmAccessParaDataBase.o
 .group         0x0000000000000000        0xc Ventilation/src/DISPLAY/DIS_FifoRead.o
 .group         0x0000000000000000        0xc Ventilation/src/DISPLAY/DIS_FifoRead.o
 .group         0x0000000000000000        0xc Ventilation/src/DISPLAY/DIS_FifoRead.o
 .group         0x0000000000000000        0xc Ventilation/src/DISPLAY/DIS_FifoRead.o
 .text          0x0000000000000000        0x0 Ventilation/src/DISPLAY/DIS_FifoRead.o
 .data          0x0000000000000000        0x0 Ventilation/src/DISPLAY/DIS_FifoRead.o
 .bss           0x0000000000000000        0x0 Ventilation/src/DISPLAY/DIS_FifoRead.o
 .debug_macro   0x0000000000000000      0xa66 Ventilation/src/DISPLAY/DIS_FifoRead.o
 .debug_macro   0x0000000000000000       0x1c Ventilation/src/DISPLAY/DIS_FifoRead.o
 .group         0x0000000000000000        0xc Ventilation/src/GENERAL/Saturation.o
 .group         0x0000000000000000        0xc Ventilation/src/GENERAL/Saturation.o
 .text          0x0000000000000000        0x0 Ventilation/src/GENERAL/Saturation.o
 .data          0x0000000000000000        0x0 Ventilation/src/GENERAL/Saturation.o
 .bss           0x0000000000000000        0x0 Ventilation/src/GENERAL/Saturation.o
 .debug_macro   0x0000000000000000      0xa66 Ventilation/src/GENERAL/Saturation.o
 .debug_macro   0x0000000000000000       0x1c Ventilation/src/GENERAL/Saturation.o
 .group         0x0000000000000000        0xc Ventilation/src/INTERRUPTS/It_watchdog.o
 .text          0x0000000000000000        0x0 Ventilation/src/INTERRUPTS/It_watchdog.o
 .data          0x0000000000000000        0x0 Ventilation/src/INTERRUPTS/It_watchdog.o
 .bss           0x0000000000000000        0x0 Ventilation/src/INTERRUPTS/It_watchdog.o
 .debug_macro   0x0000000000000000      0xa66 Ventilation/src/INTERRUPTS/It_watchdog.o
 .group         0x0000000000000000        0xc Ventilation/src/MAIN/MAIN_Global_Variables_Init.o
 .group         0x0000000000000000        0xc Ventilation/src/MAIN/MAIN_Global_Variables_Init.o
 .group         0x0000000000000000        0xc Ventilation/src/MAIN/MAIN_Global_Variables_Init.o
 .group         0x0000000000000000        0xc Ventilation/src/MAIN/MAIN_Global_Variables_Init.o
 .group         0x0000000000000000        0xc Ventilation/src/MAIN/MAIN_Global_Variables_Init.o
 .group         0x0000000000000000        0xc Ventilation/src/MAIN/MAIN_Global_Variables_Init.o
 .group         0x0000000000000000        0xc Ventilation/src/MAIN/MAIN_Global_Variables_Init.o
 .group         0x0000000000000000        0xc Ventilation/src/MAIN/MAIN_Global_Variables_Init.o
 .group         0x0000000000000000        0xc Ventilation/src/MAIN/MAIN_Global_Variables_Init.o
 .text          0x0000000000000000        0x0 Ventilation/src/MAIN/MAIN_Global_Variables_Init.o
 .data          0x0000000000000000       0x24 Ventilation/src/MAIN/MAIN_Global_Variables_Init.o
 .debug_macro   0x0000000000000000      0xa66 Ventilation/src/MAIN/MAIN_Global_Variables_Init.o
 .debug_macro   0x0000000000000000       0x1c Ventilation/src/MAIN/MAIN_Global_Variables_Init.o
 .group         0x0000000000000000        0xc Ventilation/src/MAIN/MAIN_Interfaces_Init.o
 .group         0x0000000000000000        0xc Ventilation/src/MAIN/MAIN_Interfaces_Init.o
 .group         0x0000000000000000        0xc Ventilation/src/MAIN/MAIN_Interfaces_Init.o
 .group         0x0000000000000000        0xc Ventilation/src/MAIN/MAIN_Interfaces_Init.o
 .group         0x0000000000000000        0xc Ventilation/src/MAIN/MAIN_Interfaces_Init.o
 .group         0x0000000000000000        0xc Ventilation/src/MAIN/MAIN_Interfaces_Init.o
 .group         0x0000000000000000        0xc Ventilation/src/MAIN/MAIN_Interfaces_Init.o
 .text          0x0000000000000000        0x0 Ventilation/src/MAIN/MAIN_Interfaces_Init.o
 .data          0x0000000000000000        0x0 Ventilation/src/MAIN/MAIN_Interfaces_Init.o
 .bss           0x0000000000000000        0x4 Ventilation/src/MAIN/MAIN_Interfaces_Init.o
 .debug_macro   0x0000000000000000      0xa66 Ventilation/src/MAIN/MAIN_Interfaces_Init.o
 .debug_macro   0x0000000000000000       0x1c Ventilation/src/MAIN/MAIN_Interfaces_Init.o
 .debug_macro   0x0000000000000000      0x184 Ventilation/src/MAIN/MAIN_Interfaces_Init.o
 .debug_macro   0x0000000000000000      0x196 Ventilation/src/MAIN/MAIN_Interfaces_Init.o
 .debug_macro   0x0000000000000000       0x1c Ventilation/src/MAIN/MAIN_Interfaces_Init.o
 .debug_macro   0x0000000000000000      0x1a2 Ventilation/src/MAIN/MAIN_Interfaces_Init.o
 .group         0x0000000000000000        0xc Ventilation/src/MAIN/MAIN_Security_Init.o
 .group         0x0000000000000000        0xc Ventilation/src/MAIN/MAIN_Security_Init.o
 .group         0x0000000000000000        0xc Ventilation/src/MAIN/MAIN_Security_Init.o
 .group         0x0000000000000000        0xc Ventilation/src/MAIN/MAIN_Security_Init.o
 .group         0x0000000000000000        0xc Ventilation/src/MAIN/MAIN_Security_Init.o
 .group         0x0000000000000000        0xc Ventilation/src/MAIN/MAIN_Security_Init.o
 .text          0x0000000000000000        0x0 Ventilation/src/MAIN/MAIN_Security_Init.o
 .data          0x0000000000000000        0x0 Ventilation/src/MAIN/MAIN_Security_Init.o
 .bss           0x0000000000000000        0x0 Ventilation/src/MAIN/MAIN_Security_Init.o
 .debug_macro   0x0000000000000000      0xa66 Ventilation/src/MAIN/MAIN_Security_Init.o
 .debug_macro   0x0000000000000000       0x1c Ventilation/src/MAIN/MAIN_Security_Init.o
 .debug_macro   0x0000000000000000      0x196 Ventilation/src/MAIN/MAIN_Security_Init.o
 .debug_macro   0x0000000000000000       0x16 Ventilation/src/MAIN/MAIN_Security_Init.o
 .debug_macro   0x0000000000000000      0x1a2 Ventilation/src/MAIN/MAIN_Security_Init.o
 .group         0x0000000000000000        0xc Ventilation/src/MAIN/MAIN_System_Init.o
 .group         0x0000000000000000        0xc Ventilation/src/MAIN/MAIN_System_Init.o
 .group         0x0000000000000000        0xc Ventilation/src/MAIN/MAIN_System_Init.o
 .group         0x0000000000000000        0xc Ventilation/src/MAIN/MAIN_System_Init.o
 .text          0x0000000000000000        0x0 Ventilation/src/MAIN/MAIN_System_Init.o
 .data          0x0000000000000000        0x0 Ventilation/src/MAIN/MAIN_System_Init.o
 .bss           0x0000000000000000        0x0 Ventilation/src/MAIN/MAIN_System_Init.o
 .debug_macro   0x0000000000000000      0xa66 Ventilation/src/MAIN/MAIN_System_Init.o
 .debug_macro   0x0000000000000000       0x1c Ventilation/src/MAIN/MAIN_System_Init.o
 .group         0x0000000000000000        0xc Ventilation/src/MAIN/MAIN_Target_Init.o
 .group         0x0000000000000000        0xc Ventilation/src/MAIN/MAIN_Target_Init.o
 .group         0x0000000000000000        0xc Ventilation/src/MAIN/MAIN_Target_Init.o
 .group         0x0000000000000000        0xc Ventilation/src/MAIN/MAIN_Target_Init.o
 .text          0x0000000000000000        0x0 Ventilation/src/MAIN/MAIN_Target_Init.o
 .data          0x0000000000000000        0x0 Ventilation/src/MAIN/MAIN_Target_Init.o
 .debug_macro   0x0000000000000000      0xa66 Ventilation/src/MAIN/MAIN_Target_Init.o
 .debug_macro   0x0000000000000000       0x1c Ventilation/src/MAIN/MAIN_Target_Init.o
 .debug_macro   0x0000000000000000      0x184 Ventilation/src/MAIN/MAIN_Target_Init.o
 .debug_macro   0x0000000000000000      0x196 Ventilation/src/MAIN/MAIN_Target_Init.o
 .group         0x0000000000000000        0xc Ventilation/src/MAIN/MAIN_Tasks_Init.o
 .text          0x0000000000000000        0x0 Ventilation/src/MAIN/MAIN_Tasks_Init.o
 .data          0x0000000000000000        0x0 Ventilation/src/MAIN/MAIN_Tasks_Init.o
 .bss           0x0000000000000000        0x0 Ventilation/src/MAIN/MAIN_Tasks_Init.o
 .debug_macro   0x0000000000000000      0xa66 Ventilation/src/MAIN/MAIN_Tasks_Init.o
 .group         0x0000000000000000        0xc Ventilation/src/MAIN/MAIN_Ventilation_Init.o
 .group         0x0000000000000000        0xc Ventilation/src/MAIN/MAIN_Ventilation_Init.o
 .group         0x0000000000000000        0xc Ventilation/src/MAIN/MAIN_Ventilation_Init.o
 .group         0x0000000000000000        0xc Ventilation/src/MAIN/MAIN_Ventilation_Init.o
 .group         0x0000000000000000        0xc Ventilation/src/MAIN/MAIN_Ventilation_Init.o
 .group         0x0000000000000000        0xc Ventilation/src/MAIN/MAIN_Ventilation_Init.o
 .text          0x0000000000000000        0x0 Ventilation/src/MAIN/MAIN_Ventilation_Init.o
 .data          0x0000000000000000        0x0 Ventilation/src/MAIN/MAIN_Ventilation_Init.o
 .debug_macro   0x0000000000000000      0xa66 Ventilation/src/MAIN/MAIN_Ventilation_Init.o
 .debug_macro   0x0000000000000000       0x1c Ventilation/src/MAIN/MAIN_Ventilation_Init.o
 .debug_macro   0x0000000000000000      0x280 Ventilation/src/MAIN/MAIN_Ventilation_Init.o
 .debug_macro   0x0000000000000000       0x40 Ventilation/src/MAIN/MAIN_Ventilation_Init.o
 .debug_macro   0x0000000000000000      0x2a5 Ventilation/src/MAIN/MAIN_Ventilation_Init.o
 .group         0x0000000000000000        0xc Ventilation/src/SCHEDULER/SCHED_Setup_Main.o
 .group         0x0000000000000000        0xc Ventilation/src/SCHEDULER/SCHED_Setup_Main.o
 .group         0x0000000000000000        0xc Ventilation/src/SCHEDULER/SCHED_Setup_Main.o
 .text          0x0000000000000000        0x0 Ventilation/src/SCHEDULER/SCHED_Setup_Main.o
 .data          0x0000000000000000        0x0 Ventilation/src/SCHEDULER/SCHED_Setup_Main.o
 .bss           0x0000000000000000        0x0 Ventilation/src/SCHEDULER/SCHED_Setup_Main.o
 .debug_macro   0x0000000000000000      0xa66 Ventilation/src/SCHEDULER/SCHED_Setup_Main.o
 .debug_macro   0x0000000000000000       0x1c Ventilation/src/SCHEDULER/SCHED_Setup_Main.o
 .group         0x0000000000000000        0xc Ventilation/src/SCHEDULER/SCHED_Setup_entry.o
 .group         0x0000000000000000        0xc Ventilation/src/SCHEDULER/SCHED_Setup_entry.o
 .group         0x0000000000000000        0xc Ventilation/src/SCHEDULER/SCHED_Setup_entry.o
 .group         0x0000000000000000        0xc Ventilation/src/SCHEDULER/SCHED_Setup_entry.o
 .group         0x0000000000000000        0xc Ventilation/src/SCHEDULER/SCHED_Setup_entry.o
 .text          0x0000000000000000        0x0 Ventilation/src/SCHEDULER/SCHED_Setup_entry.o
 .data          0x0000000000000000        0x0 Ventilation/src/SCHEDULER/SCHED_Setup_entry.o
 .debug_macro   0x0000000000000000      0xa66 Ventilation/src/SCHEDULER/SCHED_Setup_entry.o
 .debug_macro   0x0000000000000000       0x1c Ventilation/src/SCHEDULER/SCHED_Setup_entry.o
 .debug_macro   0x0000000000000000       0x10 Ventilation/src/SCHEDULER/SCHED_Setup_entry.o
 .group         0x0000000000000000        0xc Ventilation/src/SCHEDULER/SCHED_Ventilation_Main.o
 .group         0x0000000000000000        0xc Ventilation/src/SCHEDULER/SCHED_Ventilation_Main.o
 .group         0x0000000000000000        0xc Ventilation/src/SCHEDULER/SCHED_Ventilation_Main.o
 .text          0x0000000000000000        0x0 Ventilation/src/SCHEDULER/SCHED_Ventilation_Main.o
 .data          0x0000000000000000        0x0 Ventilation/src/SCHEDULER/SCHED_Ventilation_Main.o
 .bss           0x0000000000000000        0x0 Ventilation/src/SCHEDULER/SCHED_Ventilation_Main.o
 .debug_macro   0x0000000000000000      0xa66 Ventilation/src/SCHEDULER/SCHED_Ventilation_Main.o
 .debug_macro   0x0000000000000000       0x1c Ventilation/src/SCHEDULER/SCHED_Ventilation_Main.o
 .debug_macro   0x0000000000000000       0x10 Ventilation/src/SCHEDULER/SCHED_Ventilation_Main.o
 .group         0x0000000000000000        0xc Ventilation/src/SCHEDULER/SCHED_Ventilation_entry.o
 .text          0x0000000000000000        0x0 Ventilation/src/SCHEDULER/SCHED_Ventilation_entry.o
 .data          0x0000000000000000        0x0 Ventilation/src/SCHEDULER/SCHED_Ventilation_entry.o
 .bss           0x0000000000000000        0x0 Ventilation/src/SCHEDULER/SCHED_Ventilation_entry.o
 .debug_info    0x0000000000000000       0x21 Ventilation/src/SCHEDULER/SCHED_Ventilation_entry.o
 .debug_abbrev  0x0000000000000000       0x13 Ventilation/src/SCHEDULER/SCHED_Ventilation_entry.o
 .debug_aranges
                0x0000000000000000       0x18 Ventilation/src/SCHEDULER/SCHED_Ventilation_entry.o
 .debug_macro   0x0000000000000000       0x11 Ventilation/src/SCHEDULER/SCHED_Ventilation_entry.o
 .debug_macro   0x0000000000000000      0xa66 Ventilation/src/SCHEDULER/SCHED_Ventilation_entry.o
 .debug_line    0x0000000000000000       0x57 Ventilation/src/SCHEDULER/SCHED_Ventilation_entry.o
 .debug_str     0x0000000000000000     0x2d05 Ventilation/src/SCHEDULER/SCHED_Ventilation_entry.o
 .comment       0x0000000000000000       0x80 Ventilation/src/SCHEDULER/SCHED_Ventilation_entry.o
 .ARM.attributes
                0x0000000000000000       0x39 Ventilation/src/SCHEDULER/SCHED_Ventilation_entry.o
 .group         0x0000000000000000        0xc Ventilation/src/SECURITY/VEN_Security.o
 .group         0x0000000000000000        0xc Ventilation/src/SECURITY/VEN_Security.o
 .group         0x0000000000000000        0xc Ventilation/src/SECURITY/VEN_Security.o
 .group         0x0000000000000000        0xc Ventilation/src/SECURITY/VEN_Security.o
 .group         0x0000000000000000        0xc Ventilation/src/SECURITY/VEN_Security.o
 .text          0x0000000000000000        0x0 Ventilation/src/SECURITY/VEN_Security.o
 .data          0x0000000000000000        0x0 Ventilation/src/SECURITY/VEN_Security.o
 .bss           0x0000000000000000        0x0 Ventilation/src/SECURITY/VEN_Security.o
 .text.VEN_Security
                0x0000000000000000        0xe Ventilation/src/SECURITY/VEN_Security.o
 .debug_info    0x0000000000000000      0x83a Ventilation/src/SECURITY/VEN_Security.o
 .debug_abbrev  0x0000000000000000       0xdc Ventilation/src/SECURITY/VEN_Security.o
 .debug_aranges
                0x0000000000000000       0x20 Ventilation/src/SECURITY/VEN_Security.o
 .debug_ranges  0x0000000000000000       0x10 Ventilation/src/SECURITY/VEN_Security.o
 .debug_macro   0x0000000000000000       0x9e Ventilation/src/SECURITY/VEN_Security.o
 .debug_macro   0x0000000000000000      0xa66 Ventilation/src/SECURITY/VEN_Security.o
 .debug_macro   0x0000000000000000       0x1c Ventilation/src/SECURITY/VEN_Security.o
 .debug_macro   0x0000000000000000      0x2a5 Ventilation/src/SECURITY/VEN_Security.o
 .debug_macro   0x0000000000000000       0x2d Ventilation/src/SECURITY/VEN_Security.o
 .debug_macro   0x0000000000000000       0x40 Ventilation/src/SECURITY/VEN_Security.o
 .debug_line    0x0000000000000000      0x3ad Ventilation/src/SECURITY/VEN_Security.o
 .debug_str     0x0000000000000000     0x44e9 Ventilation/src/SECURITY/VEN_Security.o
 .comment       0x0000000000000000       0x80 Ventilation/src/SECURITY/VEN_Security.o
 .debug_frame   0x0000000000000000       0x30 Ventilation/src/SECURITY/VEN_Security.o
 .ARM.attributes
                0x0000000000000000       0x39 Ventilation/src/SECURITY/VEN_Security.o
 .group         0x0000000000000000        0xc Ventilation/src/SET_UP/SET_Actuator.o
 .group         0x0000000000000000        0xc Ventilation/src/SET_UP/SET_Actuator.o
 .group         0x0000000000000000        0xc Ventilation/src/SET_UP/SET_Actuator.o
 .group         0x0000000000000000        0xc Ventilation/src/SET_UP/SET_Actuator.o
 .group         0x0000000000000000        0xc Ventilation/src/SET_UP/SET_Actuator.o
 .group         0x0000000000000000        0xc Ventilation/src/SET_UP/SET_Actuator.o
 .text          0x0000000000000000        0x0 Ventilation/src/SET_UP/SET_Actuator.o
 .data          0x0000000000000000        0x0 Ventilation/src/SET_UP/SET_Actuator.o
 .bss           0x0000000000000000        0x0 Ventilation/src/SET_UP/SET_Actuator.o
 .debug_macro   0x0000000000000000      0xa66 Ventilation/src/SET_UP/SET_Actuator.o
 .debug_macro   0x0000000000000000       0x1c Ventilation/src/SET_UP/SET_Actuator.o
 .debug_macro   0x0000000000000000      0x196 Ventilation/src/SET_UP/SET_Actuator.o
 .debug_macro   0x0000000000000000      0x280 Ventilation/src/SET_UP/SET_Actuator.o
 .debug_macro   0x0000000000000000       0x83 Ventilation/src/SET_UP/SET_Actuator.o
 .debug_macro   0x0000000000000000       0x40 Ventilation/src/SET_UP/SET_Actuator.o
 .group         0x0000000000000000        0xc Ventilation/src/SET_UP/SET_CalibrationManagement.o
 .group         0x0000000000000000        0xc Ventilation/src/SET_UP/SET_CalibrationManagement.o
 .group         0x0000000000000000        0xc Ventilation/src/SET_UP/SET_CalibrationManagement.o
 .group         0x0000000000000000        0xc Ventilation/src/SET_UP/SET_CalibrationManagement.o
 .text          0x0000000000000000        0x0 Ventilation/src/SET_UP/SET_CalibrationManagement.o
 .data          0x0000000000000000        0x0 Ventilation/src/SET_UP/SET_CalibrationManagement.o
 .bss           0x0000000000000000        0x0 Ventilation/src/SET_UP/SET_CalibrationManagement.o
 .debug_macro   0x0000000000000000      0xa66 Ventilation/src/SET_UP/SET_CalibrationManagement.o
 .debug_macro   0x0000000000000000       0x1c Ventilation/src/SET_UP/SET_CalibrationManagement.o
 .debug_macro   0x0000000000000000      0x280 Ventilation/src/SET_UP/SET_CalibrationManagement.o
 .debug_macro   0x0000000000000000       0x83 Ventilation/src/SET_UP/SET_CalibrationManagement.o
 .group         0x0000000000000000        0xc Ventilation/src/SET_UP/SET_RTC_Mngt.o
 .group         0x0000000000000000        0xc Ventilation/src/SET_UP/SET_RTC_Mngt.o
 .text          0x0000000000000000        0x0 Ventilation/src/SET_UP/SET_RTC_Mngt.o
 .data          0x0000000000000000        0x0 Ventilation/src/SET_UP/SET_RTC_Mngt.o
 .bss           0x0000000000000000        0x0 Ventilation/src/SET_UP/SET_RTC_Mngt.o
 .debug_macro   0x0000000000000000      0xa66 Ventilation/src/SET_UP/SET_RTC_Mngt.o
 .debug_macro   0x0000000000000000       0x1c Ventilation/src/SET_UP/SET_RTC_Mngt.o
 .group         0x0000000000000000        0xc Ventilation/src/SET_UP/SET_TechnicalAlarms.o
 .group         0x0000000000000000        0xc Ventilation/src/SET_UP/SET_TechnicalAlarms.o
 .text          0x0000000000000000        0x0 Ventilation/src/SET_UP/SET_TechnicalAlarms.o
 .data          0x0000000000000000        0x0 Ventilation/src/SET_UP/SET_TechnicalAlarms.o
 .bss           0x0000000000000000        0x0 Ventilation/src/SET_UP/SET_TechnicalAlarms.o
 .debug_macro   0x0000000000000000      0xa66 Ventilation/src/SET_UP/SET_TechnicalAlarms.o
 .debug_macro   0x0000000000000000       0x1c Ventilation/src/SET_UP/SET_TechnicalAlarms.o
 .group         0x0000000000000000        0xc Ventilation/src/SYSTEM/INT_AbsPress_Interpol.o
 .group         0x0000000000000000        0xc Ventilation/src/SYSTEM/INT_AbsPress_Interpol.o
 .group         0x0000000000000000        0xc Ventilation/src/SYSTEM/INT_AbsPress_Interpol.o
 .group         0x0000000000000000        0xc Ventilation/src/SYSTEM/INT_AbsPress_Interpol.o
 .text          0x0000000000000000        0x0 Ventilation/src/SYSTEM/INT_AbsPress_Interpol.o
 .data          0x0000000000000000        0x0 Ventilation/src/SYSTEM/INT_AbsPress_Interpol.o
 .debug_macro   0x0000000000000000      0xa66 Ventilation/src/SYSTEM/INT_AbsPress_Interpol.o
 .debug_macro   0x0000000000000000       0x1c Ventilation/src/SYSTEM/INT_AbsPress_Interpol.o
 .debug_macro   0x0000000000000000      0x196 Ventilation/src/SYSTEM/INT_AbsPress_Interpol.o
 .group         0x0000000000000000        0xc Ventilation/src/SYSTEM/INT_BlowerTemperatureInterpol.o
 .group         0x0000000000000000        0xc Ventilation/src/SYSTEM/INT_BlowerTemperatureInterpol.o
 .text          0x0000000000000000        0x0 Ventilation/src/SYSTEM/INT_BlowerTemperatureInterpol.o
 .data          0x0000000000000000        0x0 Ventilation/src/SYSTEM/INT_BlowerTemperatureInterpol.o
 .debug_macro   0x0000000000000000      0xa66 Ventilation/src/SYSTEM/INT_BlowerTemperatureInterpol.o
 .debug_macro   0x0000000000000000       0x1c Ventilation/src/SYSTEM/INT_BlowerTemperatureInterpol.o
 .group         0x0000000000000000        0xc Ventilation/src/SYSTEM/INT_ExhFlow_Interpol.o
 .group         0x0000000000000000        0xc Ventilation/src/SYSTEM/INT_ExhFlow_Interpol.o
 .group         0x0000000000000000        0xc Ventilation/src/SYSTEM/INT_ExhFlow_Interpol.o
 .group         0x0000000000000000        0xc Ventilation/src/SYSTEM/INT_ExhFlow_Interpol.o
 .text          0x0000000000000000        0x0 Ventilation/src/SYSTEM/INT_ExhFlow_Interpol.o
 .data          0x0000000000000000        0x0 Ventilation/src/SYSTEM/INT_ExhFlow_Interpol.o
 .debug_macro   0x0000000000000000      0xa66 Ventilation/src/SYSTEM/INT_ExhFlow_Interpol.o
 .debug_macro   0x0000000000000000       0x1c Ventilation/src/SYSTEM/INT_ExhFlow_Interpol.o
 .debug_macro   0x0000000000000000       0x83 Ventilation/src/SYSTEM/INT_ExhFlow_Interpol.o
 .group         0x0000000000000000        0xc Ventilation/src/SYSTEM/INT_Fio2_Interpol.o
 .group         0x0000000000000000        0xc Ventilation/src/SYSTEM/INT_Fio2_Interpol.o
 .group         0x0000000000000000        0xc Ventilation/src/SYSTEM/INT_Fio2_Interpol.o
 .group         0x0000000000000000        0xc Ventilation/src/SYSTEM/INT_Fio2_Interpol.o
 .text          0x0000000000000000        0x0 Ventilation/src/SYSTEM/INT_Fio2_Interpol.o
 .data          0x0000000000000000        0x0 Ventilation/src/SYSTEM/INT_Fio2_Interpol.o
 .bss           0x0000000000000000        0x0 Ventilation/src/SYSTEM/INT_Fio2_Interpol.o
 .debug_macro   0x0000000000000000      0xa66 Ventilation/src/SYSTEM/INT_Fio2_Interpol.o
 .debug_macro   0x0000000000000000       0x1c Ventilation/src/SYSTEM/INT_Fio2_Interpol.o
 .debug_macro   0x0000000000000000      0x196 Ventilation/src/SYSTEM/INT_Fio2_Interpol.o
 .debug_macro   0x0000000000000000       0x83 Ventilation/src/SYSTEM/INT_Fio2_Interpol.o
 .group         0x0000000000000000        0xc Ventilation/src/SYSTEM/INT_Flow_Conversion_Equation.o
 .group         0x0000000000000000        0xc Ventilation/src/SYSTEM/INT_Flow_Conversion_Equation.o
 .text          0x0000000000000000        0x0 Ventilation/src/SYSTEM/INT_Flow_Conversion_Equation.o
 .data          0x0000000000000000        0x0 Ventilation/src/SYSTEM/INT_Flow_Conversion_Equation.o
 .bss           0x0000000000000000        0x0 Ventilation/src/SYSTEM/INT_Flow_Conversion_Equation.o
 .debug_macro   0x0000000000000000      0xa66 Ventilation/src/SYSTEM/INT_Flow_Conversion_Equation.o
 .debug_macro   0x0000000000000000       0x1c Ventilation/src/SYSTEM/INT_Flow_Conversion_Equation.o
 .group         0x0000000000000000        0xc Ventilation/src/SYSTEM/INT_InspFlow_Interpol.o
 .group         0x0000000000000000        0xc Ventilation/src/SYSTEM/INT_InspFlow_Interpol.o
 .group         0x0000000000000000        0xc Ventilation/src/SYSTEM/INT_InspFlow_Interpol.o
 .group         0x0000000000000000        0xc Ventilation/src/SYSTEM/INT_InspFlow_Interpol.o
 .text          0x0000000000000000        0x0 Ventilation/src/SYSTEM/INT_InspFlow_Interpol.o
 .data          0x0000000000000000        0x0 Ventilation/src/SYSTEM/INT_InspFlow_Interpol.o
 .debug_macro   0x0000000000000000      0xa66 Ventilation/src/SYSTEM/INT_InspFlow_Interpol.o
 .debug_macro   0x0000000000000000       0x1c Ventilation/src/SYSTEM/INT_InspFlow_Interpol.o
 .debug_macro   0x0000000000000000       0x83 Ventilation/src/SYSTEM/INT_InspFlow_Interpol.o
 .group         0x0000000000000000        0xc Ventilation/src/SYSTEM/INT_O2Flow_Interpol.o
 .group         0x0000000000000000        0xc Ventilation/src/SYSTEM/INT_O2Flow_Interpol.o
 .group         0x0000000000000000        0xc Ventilation/src/SYSTEM/INT_O2Flow_Interpol.o
 .group         0x0000000000000000        0xc Ventilation/src/SYSTEM/INT_O2Flow_Interpol.o
 .text          0x0000000000000000        0x0 Ventilation/src/SYSTEM/INT_O2Flow_Interpol.o
 .data          0x0000000000000000        0x0 Ventilation/src/SYSTEM/INT_O2Flow_Interpol.o
 .debug_macro   0x0000000000000000      0xa66 Ventilation/src/SYSTEM/INT_O2Flow_Interpol.o
 .debug_macro   0x0000000000000000       0x1c Ventilation/src/SYSTEM/INT_O2Flow_Interpol.o
 .debug_macro   0x0000000000000000       0x83 Ventilation/src/SYSTEM/INT_O2Flow_Interpol.o
 .group         0x0000000000000000        0xc Ventilation/src/SYSTEM/INT_O2Press_Interpol.o
 .group         0x0000000000000000        0xc Ventilation/src/SYSTEM/INT_O2Press_Interpol.o
 .group         0x0000000000000000        0xc Ventilation/src/SYSTEM/INT_O2Press_Interpol.o
 .group         0x0000000000000000        0xc Ventilation/src/SYSTEM/INT_O2Press_Interpol.o
 .text          0x0000000000000000        0x0 Ventilation/src/SYSTEM/INT_O2Press_Interpol.o
 .data          0x0000000000000000        0x0 Ventilation/src/SYSTEM/INT_O2Press_Interpol.o
 .debug_macro   0x0000000000000000      0xa66 Ventilation/src/SYSTEM/INT_O2Press_Interpol.o
 .debug_macro   0x0000000000000000       0x1c Ventilation/src/SYSTEM/INT_O2Press_Interpol.o
 .debug_macro   0x0000000000000000       0x83 Ventilation/src/SYSTEM/INT_O2Press_Interpol.o
 .group         0x0000000000000000        0xc Ventilation/src/SYSTEM/INT_PatPress_Interpol.o
 .group         0x0000000000000000        0xc Ventilation/src/SYSTEM/INT_PatPress_Interpol.o
 .group         0x0000000000000000        0xc Ventilation/src/SYSTEM/INT_PatPress_Interpol.o
 .text          0x0000000000000000        0x0 Ventilation/src/SYSTEM/INT_PatPress_Interpol.o
 .data          0x0000000000000000        0x0 Ventilation/src/SYSTEM/INT_PatPress_Interpol.o
 .debug_macro   0x0000000000000000      0xa66 Ventilation/src/SYSTEM/INT_PatPress_Interpol.o
 .debug_macro   0x0000000000000000       0x1c Ventilation/src/SYSTEM/INT_PatPress_Interpol.o
 .debug_macro   0x0000000000000000       0x83 Ventilation/src/SYSTEM/INT_PatPress_Interpol.o
 .group         0x0000000000000000        0xc Ventilation/src/SYSTEM/INT_ProxiPress_Interpol.o
 .group         0x0000000000000000        0xc Ventilation/src/SYSTEM/INT_ProxiPress_Interpol.o
 .group         0x0000000000000000        0xc Ventilation/src/SYSTEM/INT_ProxiPress_Interpol.o
 .text          0x0000000000000000        0x0 Ventilation/src/SYSTEM/INT_ProxiPress_Interpol.o
 .data          0x0000000000000000        0x0 Ventilation/src/SYSTEM/INT_ProxiPress_Interpol.o
 .debug_macro   0x0000000000000000      0xa66 Ventilation/src/SYSTEM/INT_ProxiPress_Interpol.o
 .debug_macro   0x0000000000000000       0x1c Ventilation/src/SYSTEM/INT_ProxiPress_Interpol.o
 .debug_macro   0x0000000000000000       0x83 Ventilation/src/SYSTEM/INT_ProxiPress_Interpol.o
 .group         0x0000000000000000        0xc Ventilation/src/SYSTEM/INT_SpeedBlow_Interpol.o
 .group         0x0000000000000000        0xc Ventilation/src/SYSTEM/INT_SpeedBlow_Interpol.o
 .group         0x0000000000000000        0xc Ventilation/src/SYSTEM/INT_SpeedBlow_Interpol.o
 .text          0x0000000000000000        0x0 Ventilation/src/SYSTEM/INT_SpeedBlow_Interpol.o
 .data          0x0000000000000000        0x0 Ventilation/src/SYSTEM/INT_SpeedBlow_Interpol.o
 .debug_macro   0x0000000000000000      0xa66 Ventilation/src/SYSTEM/INT_SpeedBlow_Interpol.o
 .debug_macro   0x0000000000000000       0x1c Ventilation/src/SYSTEM/INT_SpeedBlow_Interpol.o
 .debug_macro   0x0000000000000000      0x2a5 Ventilation/src/SYSTEM/INT_SpeedBlow_Interpol.o
 .group         0x0000000000000000        0xc Ventilation/src/SYSTEM/INT_ValvePress_Interpol.o
 .group         0x0000000000000000        0xc Ventilation/src/SYSTEM/INT_ValvePress_Interpol.o
 .group         0x0000000000000000        0xc Ventilation/src/SYSTEM/INT_ValvePress_Interpol.o
 .text          0x0000000000000000        0x0 Ventilation/src/SYSTEM/INT_ValvePress_Interpol.o
 .data          0x0000000000000000        0x0 Ventilation/src/SYSTEM/INT_ValvePress_Interpol.o
 .debug_macro   0x0000000000000000      0xa66 Ventilation/src/SYSTEM/INT_ValvePress_Interpol.o
 .debug_macro   0x0000000000000000       0x1c Ventilation/src/SYSTEM/INT_ValvePress_Interpol.o
 .group         0x0000000000000000        0xc Ventilation/src/SYSTEM/INT_Voltages_Interpol.o
 .group         0x0000000000000000        0xc Ventilation/src/SYSTEM/INT_Voltages_Interpol.o
 .group         0x0000000000000000        0xc Ventilation/src/SYSTEM/INT_Voltages_Interpol.o
 .text          0x0000000000000000        0x0 Ventilation/src/SYSTEM/INT_Voltages_Interpol.o
 .data          0x0000000000000000        0x0 Ventilation/src/SYSTEM/INT_Voltages_Interpol.o
 .bss           0x0000000000000000        0x0 Ventilation/src/SYSTEM/INT_Voltages_Interpol.o
 .debug_macro   0x0000000000000000      0xa66 Ventilation/src/SYSTEM/INT_Voltages_Interpol.o
 .debug_macro   0x0000000000000000       0x1c Ventilation/src/SYSTEM/INT_Voltages_Interpol.o
 .debug_macro   0x0000000000000000      0x2a5 Ventilation/src/SYSTEM/INT_Voltages_Interpol.o
 .group         0x0000000000000000        0xc Ventilation/src/SYSTEM/SYS_Backlight_Mngt.o
 .group         0x0000000000000000        0xc Ventilation/src/SYSTEM/SYS_Backlight_Mngt.o
 .group         0x0000000000000000        0xc Ventilation/src/SYSTEM/SYS_Backlight_Mngt.o
 .group         0x0000000000000000        0xc Ventilation/src/SYSTEM/SYS_Backlight_Mngt.o
 .group         0x0000000000000000        0xc Ventilation/src/SYSTEM/SYS_Backlight_Mngt.o
 .text          0x0000000000000000        0x0 Ventilation/src/SYSTEM/SYS_Backlight_Mngt.o
 .data          0x0000000000000000        0x0 Ventilation/src/SYSTEM/SYS_Backlight_Mngt.o
 .bss           0x0000000000000000        0x0 Ventilation/src/SYSTEM/SYS_Backlight_Mngt.o
 .debug_macro   0x0000000000000000      0xa66 Ventilation/src/SYSTEM/SYS_Backlight_Mngt.o
 .debug_macro   0x0000000000000000       0x1c Ventilation/src/SYSTEM/SYS_Backlight_Mngt.o
 .debug_macro   0x0000000000000000      0x2a5 Ventilation/src/SYSTEM/SYS_Backlight_Mngt.o
 .debug_macro   0x0000000000000000       0x83 Ventilation/src/SYSTEM/SYS_Backlight_Mngt.o
 .group         0x0000000000000000        0xc Ventilation/src/SYSTEM/SYS_CurveFlowCalcul.o
 .group         0x0000000000000000        0xc Ventilation/src/SYSTEM/SYS_CurveFlowCalcul.o
 .text          0x0000000000000000        0x0 Ventilation/src/SYSTEM/SYS_CurveFlowCalcul.o
 .data          0x0000000000000000        0x0 Ventilation/src/SYSTEM/SYS_CurveFlowCalcul.o
 .bss           0x0000000000000000        0x0 Ventilation/src/SYSTEM/SYS_CurveFlowCalcul.o
 .debug_macro   0x0000000000000000      0xa66 Ventilation/src/SYSTEM/SYS_CurveFlowCalcul.o
 .debug_macro   0x0000000000000000       0x1c Ventilation/src/SYSTEM/SYS_CurveFlowCalcul.o
 .group         0x0000000000000000        0xc Ventilation/src/SYSTEM/SYS_Fio2Detection.o
 .group         0x0000000000000000        0xc Ventilation/src/SYSTEM/SYS_Fio2Detection.o
 .group         0x0000000000000000        0xc Ventilation/src/SYSTEM/SYS_Fio2Detection.o
 .group         0x0000000000000000        0xc Ventilation/src/SYSTEM/SYS_Fio2Detection.o
 .text          0x0000000000000000        0x0 Ventilation/src/SYSTEM/SYS_Fio2Detection.o
 .data          0x0000000000000000        0x0 Ventilation/src/SYSTEM/SYS_Fio2Detection.o
 .bss           0x0000000000000000        0x0 Ventilation/src/SYSTEM/SYS_Fio2Detection.o
 .debug_macro   0x0000000000000000      0xa66 Ventilation/src/SYSTEM/SYS_Fio2Detection.o
 .debug_macro   0x0000000000000000       0x1c Ventilation/src/SYSTEM/SYS_Fio2Detection.o
 .debug_macro   0x0000000000000000      0x196 Ventilation/src/SYSTEM/SYS_Fio2Detection.o
 .debug_macro   0x0000000000000000      0x2a5 Ventilation/src/SYSTEM/SYS_Fio2Detection.o
 .group         0x0000000000000000        0xc Ventilation/src/SYSTEM/SYS_Interpolation.o
 .group         0x0000000000000000        0xc Ventilation/src/SYSTEM/SYS_Interpolation.o
 .text          0x0000000000000000        0x0 Ventilation/src/SYSTEM/SYS_Interpolation.o
 .data          0x0000000000000000        0x0 Ventilation/src/SYSTEM/SYS_Interpolation.o
 .debug_macro   0x0000000000000000      0xa66 Ventilation/src/SYSTEM/SYS_Interpolation.o
 .debug_macro   0x0000000000000000       0x1c Ventilation/src/SYSTEM/SYS_Interpolation.o
 .group         0x0000000000000000        0xc Ventilation/src/SYSTEM/SYS_Keyboard.o
 .group         0x0000000000000000        0xc Ventilation/src/SYSTEM/SYS_Keyboard.o
 .group         0x0000000000000000        0xc Ventilation/src/SYSTEM/SYS_Keyboard.o
 .group         0x0000000000000000        0xc Ventilation/src/SYSTEM/SYS_Keyboard.o
 .group         0x0000000000000000        0xc Ventilation/src/SYSTEM/SYS_Keyboard.o
 .text          0x0000000000000000        0x0 Ventilation/src/SYSTEM/SYS_Keyboard.o
 .data          0x0000000000000000        0x0 Ventilation/src/SYSTEM/SYS_Keyboard.o
 .bss           0x0000000000000000        0x0 Ventilation/src/SYSTEM/SYS_Keyboard.o
 .debug_macro   0x0000000000000000      0xa66 Ventilation/src/SYSTEM/SYS_Keyboard.o
 .debug_macro   0x0000000000000000       0x1c Ventilation/src/SYSTEM/SYS_Keyboard.o
 .debug_macro   0x0000000000000000      0x2a5 Ventilation/src/SYSTEM/SYS_Keyboard.o
 .debug_macro   0x0000000000000000       0x83 Ventilation/src/SYSTEM/SYS_Keyboard.o
 .group         0x0000000000000000        0xc Ventilation/src/SYSTEM/SYS_RTC_Update.o
 .group         0x0000000000000000        0xc Ventilation/src/SYSTEM/SYS_RTC_Update.o
 .text          0x0000000000000000        0x0 Ventilation/src/SYSTEM/SYS_RTC_Update.o
 .data          0x0000000000000000        0x0 Ventilation/src/SYSTEM/SYS_RTC_Update.o
 .bss           0x0000000000000000        0x0 Ventilation/src/SYSTEM/SYS_RTC_Update.o
 .text.SYS_RTC_Update
                0x0000000000000000       0x62 Ventilation/src/SYSTEM/SYS_RTC_Update.o
 .debug_info    0x0000000000000000      0x15f Ventilation/src/SYSTEM/SYS_RTC_Update.o
 .debug_abbrev  0x0000000000000000       0xc9 Ventilation/src/SYSTEM/SYS_RTC_Update.o
 .debug_aranges
                0x0000000000000000       0x20 Ventilation/src/SYSTEM/SYS_RTC_Update.o
 .debug_ranges  0x0000000000000000       0x10 Ventilation/src/SYSTEM/SYS_RTC_Update.o
 .debug_macro   0x0000000000000000       0x53 Ventilation/src/SYSTEM/SYS_RTC_Update.o
 .debug_macro   0x0000000000000000      0xa66 Ventilation/src/SYSTEM/SYS_RTC_Update.o
 .debug_macro   0x0000000000000000       0x1c Ventilation/src/SYSTEM/SYS_RTC_Update.o
 .debug_line    0x0000000000000000      0x190 Ventilation/src/SYSTEM/SYS_RTC_Update.o
 .debug_str     0x0000000000000000     0x2f21 Ventilation/src/SYSTEM/SYS_RTC_Update.o
 .comment       0x0000000000000000       0x80 Ventilation/src/SYSTEM/SYS_RTC_Update.o
 .debug_frame   0x0000000000000000       0x34 Ventilation/src/SYSTEM/SYS_RTC_Update.o
 .ARM.attributes
                0x0000000000000000       0x39 Ventilation/src/SYSTEM/SYS_RTC_Update.o
 .group         0x0000000000000000        0xc Ventilation/src/SYSTEM/SYS_SetupLaunch.o
 .text          0x0000000000000000        0x0 Ventilation/src/SYSTEM/SYS_SetupLaunch.o
 .data          0x0000000000000000        0x0 Ventilation/src/SYSTEM/SYS_SetupLaunch.o
 .bss           0x0000000000000000        0x0 Ventilation/src/SYSTEM/SYS_SetupLaunch.o
 .debug_macro   0x0000000000000000      0xa66 Ventilation/src/SYSTEM/SYS_SetupLaunch.o
 .group         0x0000000000000000        0xc Ventilation/src/SYSTEM/SYS_SupplyDetect.o
 .group         0x0000000000000000        0xc Ventilation/src/SYSTEM/SYS_SupplyDetect.o
 .group         0x0000000000000000        0xc Ventilation/src/SYSTEM/SYS_SupplyDetect.o
 .text          0x0000000000000000        0x0 Ventilation/src/SYSTEM/SYS_SupplyDetect.o
 .data          0x0000000000000000        0x0 Ventilation/src/SYSTEM/SYS_SupplyDetect.o
 .bss           0x0000000000000000        0x0 Ventilation/src/SYSTEM/SYS_SupplyDetect.o
 .debug_macro   0x0000000000000000      0xa66 Ventilation/src/SYSTEM/SYS_SupplyDetect.o
 .debug_macro   0x0000000000000000       0x1c Ventilation/src/SYSTEM/SYS_SupplyDetect.o
 .debug_macro   0x0000000000000000       0x1c Ventilation/src/SYSTEM/SYS_SupplyDetect.o
 .group         0x0000000000000000        0xc Ventilation/src/SYSTEM/SYS_VentilationLaunch.o
 .group         0x0000000000000000        0xc Ventilation/src/SYSTEM/SYS_VentilationLaunch.o
 .text          0x0000000000000000        0x0 Ventilation/src/SYSTEM/SYS_VentilationLaunch.o
 .data          0x0000000000000000        0x0 Ventilation/src/SYSTEM/SYS_VentilationLaunch.o
 .bss           0x0000000000000000        0x0 Ventilation/src/SYSTEM/SYS_VentilationLaunch.o
 .text.SYS_VentilationLaunch
                0x0000000000000000        0xe Ventilation/src/SYSTEM/SYS_VentilationLaunch.o
 .debug_info    0x0000000000000000       0x6c Ventilation/src/SYSTEM/SYS_VentilationLaunch.o
 .debug_abbrev  0x0000000000000000       0x45 Ventilation/src/SYSTEM/SYS_VentilationLaunch.o
 .debug_aranges
                0x0000000000000000       0x20 Ventilation/src/SYSTEM/SYS_VentilationLaunch.o
 .debug_ranges  0x0000000000000000       0x10 Ventilation/src/SYSTEM/SYS_VentilationLaunch.o
 .debug_macro   0x0000000000000000       0x24 Ventilation/src/SYSTEM/SYS_VentilationLaunch.o
 .debug_macro   0x0000000000000000      0xa66 Ventilation/src/SYSTEM/SYS_VentilationLaunch.o
 .debug_macro   0x0000000000000000       0x1c Ventilation/src/SYSTEM/SYS_VentilationLaunch.o
 .debug_line    0x0000000000000000      0x119 Ventilation/src/SYSTEM/SYS_VentilationLaunch.o
 .debug_str     0x0000000000000000     0x2da4 Ventilation/src/SYSTEM/SYS_VentilationLaunch.o
 .comment       0x0000000000000000       0x80 Ventilation/src/SYSTEM/SYS_VentilationLaunch.o
 .debug_frame   0x0000000000000000       0x30 Ventilation/src/SYSTEM/SYS_VentilationLaunch.o
 .ARM.attributes
                0x0000000000000000       0x39 Ventilation/src/SYSTEM/SYS_VentilationLaunch.o
 .group         0x0000000000000000        0xc Ventilation/src/TIMERS/TIM_Launch.o
 .group         0x0000000000000000        0xc Ventilation/src/TIMERS/TIM_Launch.o
 .group         0x0000000000000000        0xc Ventilation/src/TIMERS/TIM_Launch.o
 .text          0x0000000000000000        0x0 Ventilation/src/TIMERS/TIM_Launch.o
 .data          0x0000000000000000        0x0 Ventilation/src/TIMERS/TIM_Launch.o
 .bss           0x0000000000000000        0x0 Ventilation/src/TIMERS/TIM_Launch.o
 .debug_macro   0x0000000000000000      0xa66 Ventilation/src/TIMERS/TIM_Launch.o
 .debug_macro   0x0000000000000000       0x1c Ventilation/src/TIMERS/TIM_Launch.o
 .debug_macro   0x0000000000000000      0x2a5 Ventilation/src/TIMERS/TIM_Launch.o
 .group         0x0000000000000000        0xc Ventilation/src/TIMERS/TIM_ReadCounterValue.o
 .group         0x0000000000000000        0xc Ventilation/src/TIMERS/TIM_ReadCounterValue.o
 .group         0x0000000000000000        0xc Ventilation/src/TIMERS/TIM_ReadCounterValue.o
 .text          0x0000000000000000        0x0 Ventilation/src/TIMERS/TIM_ReadCounterValue.o
 .data          0x0000000000000000        0x0 Ventilation/src/TIMERS/TIM_ReadCounterValue.o
 .bss           0x0000000000000000        0x0 Ventilation/src/TIMERS/TIM_ReadCounterValue.o
 .debug_macro   0x0000000000000000      0xa66 Ventilation/src/TIMERS/TIM_ReadCounterValue.o
 .debug_macro   0x0000000000000000       0x1c Ventilation/src/TIMERS/TIM_ReadCounterValue.o
 .debug_macro   0x0000000000000000      0x2a5 Ventilation/src/TIMERS/TIM_ReadCounterValue.o
 .group         0x0000000000000000        0xc Ventilation/src/TIMERS/TIM_ReadDecounterValue.o
 .group         0x0000000000000000        0xc Ventilation/src/TIMERS/TIM_ReadDecounterValue.o
 .group         0x0000000000000000        0xc Ventilation/src/TIMERS/TIM_ReadDecounterValue.o
 .text          0x0000000000000000        0x0 Ventilation/src/TIMERS/TIM_ReadDecounterValue.o
 .data          0x0000000000000000        0x0 Ventilation/src/TIMERS/TIM_ReadDecounterValue.o
 .bss           0x0000000000000000        0x0 Ventilation/src/TIMERS/TIM_ReadDecounterValue.o
 .debug_macro   0x0000000000000000      0xa66 Ventilation/src/TIMERS/TIM_ReadDecounterValue.o
 .debug_macro   0x0000000000000000       0x1c Ventilation/src/TIMERS/TIM_ReadDecounterValue.o
 .debug_macro   0x0000000000000000      0x2a5 Ventilation/src/TIMERS/TIM_ReadDecounterValue.o
 .group         0x0000000000000000        0xc Ventilation/src/TIMERS/TIM_StartDecounter.o
 .group         0x0000000000000000        0xc Ventilation/src/TIMERS/TIM_StartDecounter.o
 .group         0x0000000000000000        0xc Ventilation/src/TIMERS/TIM_StartDecounter.o
 .text          0x0000000000000000        0x0 Ventilation/src/TIMERS/TIM_StartDecounter.o
 .data          0x0000000000000000        0x0 Ventilation/src/TIMERS/TIM_StartDecounter.o
 .bss           0x0000000000000000        0x0 Ventilation/src/TIMERS/TIM_StartDecounter.o
 .debug_macro   0x0000000000000000      0xa66 Ventilation/src/TIMERS/TIM_StartDecounter.o
 .debug_macro   0x0000000000000000       0x1c Ventilation/src/TIMERS/TIM_StartDecounter.o
 .debug_macro   0x0000000000000000      0x2a5 Ventilation/src/TIMERS/TIM_StartDecounter.o
 .group         0x0000000000000000        0xc Ventilation/src/TIMERS/TIM_Temporize.o
 .group         0x0000000000000000        0xc Ventilation/src/TIMERS/TIM_Temporize.o
 .group         0x0000000000000000        0xc Ventilation/src/TIMERS/TIM_Temporize.o
 .group         0x0000000000000000        0xc Ventilation/src/TIMERS/TIM_Temporize.o
 .text          0x0000000000000000        0x0 Ventilation/src/TIMERS/TIM_Temporize.o
 .data          0x0000000000000000        0x0 Ventilation/src/TIMERS/TIM_Temporize.o
 .bss           0x0000000000000000        0x0 Ventilation/src/TIMERS/TIM_Temporize.o
 .debug_macro   0x0000000000000000      0xa66 Ventilation/src/TIMERS/TIM_Temporize.o
 .debug_macro   0x0000000000000000       0x1c Ventilation/src/TIMERS/TIM_Temporize.o
 .debug_macro   0x0000000000000000      0x184 Ventilation/src/TIMERS/TIM_Temporize.o
 .debug_macro   0x0000000000000000      0x2a5 Ventilation/src/TIMERS/TIM_Temporize.o
 .group         0x0000000000000000        0xc Ventilation/src/VENTILATION/VEN_Actuators.o
 .group         0x0000000000000000        0xc Ventilation/src/VENTILATION/VEN_Actuators.o
 .group         0x0000000000000000        0xc Ventilation/src/VENTILATION/VEN_Actuators.o
 .group         0x0000000000000000        0xc Ventilation/src/VENTILATION/VEN_Actuators.o
 .group         0x0000000000000000        0xc Ventilation/src/VENTILATION/VEN_Actuators.o
 .group         0x0000000000000000        0xc Ventilation/src/VENTILATION/VEN_Actuators.o
 .text          0x0000000000000000        0x0 Ventilation/src/VENTILATION/VEN_Actuators.o
 .data          0x0000000000000000        0x0 Ventilation/src/VENTILATION/VEN_Actuators.o
 .bss           0x0000000000000000        0x0 Ventilation/src/VENTILATION/VEN_Actuators.o
 .text.VEN_Actuators
                0x0000000000000000        0xe Ventilation/src/VENTILATION/VEN_Actuators.o
 .debug_info    0x0000000000000000      0x815 Ventilation/src/VENTILATION/VEN_Actuators.o
 .debug_abbrev  0x0000000000000000       0xdc Ventilation/src/VENTILATION/VEN_Actuators.o
 .debug_aranges
                0x0000000000000000       0x20 Ventilation/src/VENTILATION/VEN_Actuators.o
 .debug_ranges  0x0000000000000000       0x10 Ventilation/src/VENTILATION/VEN_Actuators.o
 .debug_macro   0x0000000000000000       0xad Ventilation/src/VENTILATION/VEN_Actuators.o
 .debug_macro   0x0000000000000000      0xa66 Ventilation/src/VENTILATION/VEN_Actuators.o
 .debug_macro   0x0000000000000000       0x1c Ventilation/src/VENTILATION/VEN_Actuators.o
 .debug_macro   0x0000000000000000      0x2a5 Ventilation/src/VENTILATION/VEN_Actuators.o
 .debug_macro   0x0000000000000000      0x196 Ventilation/src/VENTILATION/VEN_Actuators.o
 .debug_macro   0x0000000000000000      0x280 Ventilation/src/VENTILATION/VEN_Actuators.o
 .debug_macro   0x0000000000000000       0x40 Ventilation/src/VENTILATION/VEN_Actuators.o
 .debug_line    0x0000000000000000      0x347 Ventilation/src/VENTILATION/VEN_Actuators.o
 .debug_str     0x0000000000000000     0x53d5 Ventilation/src/VENTILATION/VEN_Actuators.o
 .comment       0x0000000000000000       0x80 Ventilation/src/VENTILATION/VEN_Actuators.o
 .debug_frame   0x0000000000000000       0x30 Ventilation/src/VENTILATION/VEN_Actuators.o
 .ARM.attributes
                0x0000000000000000       0x39 Ventilation/src/VENTILATION/VEN_Actuators.o
 .group         0x0000000000000000        0xc Ventilation/src/VENTILATION/VEN_Compute.o
 .group         0x0000000000000000        0xc Ventilation/src/VENTILATION/VEN_Compute.o
 .group         0x0000000000000000        0xc Ventilation/src/VENTILATION/VEN_Compute.o
 .group         0x0000000000000000        0xc Ventilation/src/VENTILATION/VEN_Compute.o
 .text          0x0000000000000000        0x0 Ventilation/src/VENTILATION/VEN_Compute.o
 .data          0x0000000000000000        0x8 Ventilation/src/VENTILATION/VEN_Compute.o
 .bss           0x0000000000000000       0x2c Ventilation/src/VENTILATION/VEN_Compute.o
 .text.VEN_Compute
                0x0000000000000000        0xe Ventilation/src/VENTILATION/VEN_Compute.o
 .debug_info    0x0000000000000000     0x10ab Ventilation/src/VENTILATION/VEN_Compute.o
 .debug_abbrev  0x0000000000000000       0xf2 Ventilation/src/VENTILATION/VEN_Compute.o
 .debug_aranges
                0x0000000000000000       0x20 Ventilation/src/VENTILATION/VEN_Compute.o
 .debug_ranges  0x0000000000000000       0x10 Ventilation/src/VENTILATION/VEN_Compute.o
 .debug_macro   0x0000000000000000       0x8d Ventilation/src/VENTILATION/VEN_Compute.o
 .debug_macro   0x0000000000000000      0xa66 Ventilation/src/VENTILATION/VEN_Compute.o
 .debug_macro   0x0000000000000000       0x1c Ventilation/src/VENTILATION/VEN_Compute.o
 .debug_macro   0x0000000000000000       0x40 Ventilation/src/VENTILATION/VEN_Compute.o
 .debug_macro   0x0000000000000000       0x22 Ventilation/src/VENTILATION/VEN_Compute.o
 .debug_line    0x0000000000000000      0x2b8 Ventilation/src/VENTILATION/VEN_Compute.o
 .debug_str     0x0000000000000000     0x58ae Ventilation/src/VENTILATION/VEN_Compute.o
 .comment       0x0000000000000000       0x80 Ventilation/src/VENTILATION/VEN_Compute.o
 .debug_frame   0x0000000000000000       0x30 Ventilation/src/VENTILATION/VEN_Compute.o
 .ARM.attributes
                0x0000000000000000       0x39 Ventilation/src/VENTILATION/VEN_Compute.o
 COMMON         0x0000000000000000       0x6c Ventilation/src/VENTILATION/VEN_Compute.o
 .group         0x0000000000000000        0xc Ventilation/src/VENTILATION/VEN_Cycles.o
 .group         0x0000000000000000        0xc Ventilation/src/VENTILATION/VEN_Cycles.o
 .group         0x0000000000000000        0xc Ventilation/src/VENTILATION/VEN_Cycles.o
 .group         0x0000000000000000        0xc Ventilation/src/VENTILATION/VEN_Cycles.o
 .group         0x0000000000000000        0xc Ventilation/src/VENTILATION/VEN_Cycles.o
 .group         0x0000000000000000        0xc Ventilation/src/VENTILATION/VEN_Cycles.o
 .group         0x0000000000000000        0xc Ventilation/src/VENTILATION/VEN_Cycles.o
 .text          0x0000000000000000        0x0 Ventilation/src/VENTILATION/VEN_Cycles.o
 .data          0x0000000000000000        0x4 Ventilation/src/VENTILATION/VEN_Cycles.o
 .bss           0x0000000000000000       0x11 Ventilation/src/VENTILATION/VEN_Cycles.o
 .text.VEN_Cycles
                0x0000000000000000        0xe Ventilation/src/VENTILATION/VEN_Cycles.o
 .debug_macro   0x0000000000000000      0xa66 Ventilation/src/VENTILATION/VEN_Cycles.o
 .debug_macro   0x0000000000000000       0x1c Ventilation/src/VENTILATION/VEN_Cycles.o
 .debug_macro   0x0000000000000000      0x2a5 Ventilation/src/VENTILATION/VEN_Cycles.o
 .debug_macro   0x0000000000000000      0x280 Ventilation/src/VENTILATION/VEN_Cycles.o
 .debug_macro   0x0000000000000000       0x40 Ventilation/src/VENTILATION/VEN_Cycles.o
 .debug_macro   0x0000000000000000       0x16 Ventilation/src/VENTILATION/VEN_Cycles.o
 .debug_macro   0x0000000000000000       0x22 Ventilation/src/VENTILATION/VEN_Cycles.o
 .group         0x0000000000000000        0xc Ventilation/src/VENTILATION/VEN_RiseCompute.o
 .group         0x0000000000000000        0xc Ventilation/src/VENTILATION/VEN_RiseCompute.o
 .text          0x0000000000000000        0x0 Ventilation/src/VENTILATION/VEN_RiseCompute.o
 .data          0x0000000000000000        0x0 Ventilation/src/VENTILATION/VEN_RiseCompute.o
 .bss           0x0000000000000000        0x0 Ventilation/src/VENTILATION/VEN_RiseCompute.o
 .debug_macro   0x0000000000000000      0xa66 Ventilation/src/VENTILATION/VEN_RiseCompute.o
 .debug_macro   0x0000000000000000       0x1c Ventilation/src/VENTILATION/VEN_RiseCompute.o
 .group         0x0000000000000000        0xc src/MAIN.o
 .group         0x0000000000000000        0xc src/MAIN.o
 .group         0x0000000000000000        0xc src/MAIN.o
 .text          0x0000000000000000        0x0 src/MAIN.o
 .data          0x0000000000000000        0x0 src/MAIN.o
 .debug_macro   0x0000000000000000      0xa66 src/MAIN.o
 .debug_macro   0x0000000000000000       0x1c src/MAIN.o
 .debug_macro   0x0000000000000000      0x184 src/MAIN.o
 COMMON         0x0000000000000000      0x184 src/MAIN.o
 .text          0x0000000000000000       0x14 startup/startup_stm32.o
 .data          0x0000000000000000        0x0 startup/startup_stm32.o
 .bss           0x0000000000000000        0x0 startup/startup_stm32.o
 .group         0x0000000000000000        0xc startup/sysmem.o
 .group         0x0000000000000000        0xc startup/sysmem.o
 .group         0x0000000000000000        0xc startup/sysmem.o
 .group         0x0000000000000000        0xc startup/sysmem.o
 .group         0x0000000000000000        0xc startup/sysmem.o
 .group         0x0000000000000000        0xc startup/sysmem.o
 .group         0x0000000000000000        0xc startup/sysmem.o
 .group         0x0000000000000000        0xc startup/sysmem.o
 .group         0x0000000000000000        0xc startup/sysmem.o
 .group         0x0000000000000000        0xc startup/sysmem.o
 .group         0x0000000000000000        0xc startup/sysmem.o
 .group         0x0000000000000000        0xc startup/sysmem.o
 .group         0x0000000000000000        0xc startup/sysmem.o
 .group         0x0000000000000000        0xc startup/sysmem.o
 .group         0x0000000000000000        0xc startup/sysmem.o
 .group         0x0000000000000000        0xc startup/sysmem.o
 .group         0x0000000000000000        0xc startup/sysmem.o
 .group         0x0000000000000000        0xc startup/sysmem.o
 .group         0x0000000000000000        0xc startup/sysmem.o
 .group         0x0000000000000000        0xc startup/sysmem.o
 .group         0x0000000000000000        0xc startup/sysmem.o
 .group         0x0000000000000000        0xc startup/sysmem.o
 .group         0x0000000000000000        0xc startup/sysmem.o
 .group         0x0000000000000000        0xc startup/sysmem.o
 .group         0x0000000000000000        0xc startup/sysmem.o
 .group         0x0000000000000000        0xc startup/sysmem.o
 .group         0x0000000000000000        0xc startup/sysmem.o
 .group         0x0000000000000000        0xc startup/sysmem.o
 .group         0x0000000000000000        0xc startup/sysmem.o
 .group         0x0000000000000000        0xc startup/sysmem.o
 .group         0x0000000000000000        0xc startup/sysmem.o
 .group         0x0000000000000000        0xc startup/sysmem.o
 .text          0x0000000000000000        0x0 startup/sysmem.o
 .data          0x0000000000000000        0x0 startup/sysmem.o
 .bss           0x0000000000000000        0x4 startup/sysmem.o
 .text._sbrk    0x0000000000000000       0x58 startup/sysmem.o
 .debug_info    0x0000000000000000      0x92c startup/sysmem.o
 .debug_abbrev  0x0000000000000000      0x1f1 startup/sysmem.o
 .debug_aranges
                0x0000000000000000       0x20 startup/sysmem.o
 .debug_ranges  0x0000000000000000       0x10 startup/sysmem.o
 .debug_macro   0x0000000000000000      0x1ae startup/sysmem.o
 .debug_macro   0x0000000000000000      0xa66 startup/sysmem.o
 .debug_macro   0x0000000000000000       0x10 startup/sysmem.o
 .debug_macro   0x0000000000000000       0x22 startup/sysmem.o
 .debug_macro   0x0000000000000000       0x58 startup/sysmem.o
 .debug_macro   0x0000000000000000       0x18 startup/sysmem.o
 .debug_macro   0x0000000000000000       0x94 startup/sysmem.o
 .debug_macro   0x0000000000000000       0x35 startup/sysmem.o
 .debug_macro   0x0000000000000000       0x34 startup/sysmem.o
 .debug_macro   0x0000000000000000      0x174 startup/sysmem.o
 .debug_macro   0x0000000000000000       0x57 startup/sysmem.o
 .debug_macro   0x0000000000000000       0x58 startup/sysmem.o
 .debug_macro   0x0000000000000000       0x1f startup/sysmem.o
 .debug_macro   0x0000000000000000       0x43 startup/sysmem.o
 .debug_macro   0x0000000000000000       0x20 startup/sysmem.o
 .debug_macro   0x0000000000000000      0x18e startup/sysmem.o
 .debug_macro   0x0000000000000000      0x23b startup/sysmem.o
 .debug_macro   0x0000000000000000       0x16 startup/sysmem.o
 .debug_macro   0x0000000000000000       0x35 startup/sysmem.o
 .debug_macro   0x0000000000000000      0x330 startup/sysmem.o
 .debug_macro   0x0000000000000000       0x10 startup/sysmem.o
 .debug_macro   0x0000000000000000       0x10 startup/sysmem.o
 .debug_macro   0x0000000000000000       0x6a startup/sysmem.o
 .debug_macro   0x0000000000000000       0x1c startup/sysmem.o
 .debug_macro   0x0000000000000000       0x52 startup/sysmem.o
 .debug_macro   0x0000000000000000       0x40 startup/sysmem.o
 .debug_macro   0x0000000000000000       0x10 startup/sysmem.o
 .debug_macro   0x0000000000000000       0x40 startup/sysmem.o
 .debug_macro   0x0000000000000000       0xd7 startup/sysmem.o
 .debug_macro   0x0000000000000000       0x1c startup/sysmem.o
 .debug_macro   0x0000000000000000       0x3d startup/sysmem.o
 .debug_macro   0x0000000000000000       0x16 startup/sysmem.o
 .debug_macro   0x0000000000000000      0x16f startup/sysmem.o
 .debug_line    0x0000000000000000      0x3f6 startup/sysmem.o
 .debug_str     0x0000000000000000     0x77b4 startup/sysmem.o
 .comment       0x0000000000000000       0x80 startup/sysmem.o
 .debug_frame   0x0000000000000000       0x34 startup/sysmem.o
 .ARM.attributes
                0x0000000000000000       0x39 startup/sysmem.o
 .text          0x0000000000000000        0x0 /home/bhavya/Downloads/1/plugins/fr.ac6.mcu.externaltools.arm-none.linux64_1.17.0.201812190825/tools/compiler/bin/../lib/gcc/arm-none-eabi/7.3.1/../../../../arm-none-eabi/lib/thumb/v7e-m/fpv4-sp/hard/libc.a(lib_a-errno.o)
 .data          0x0000000000000000        0x0 /home/bhavya/Downloads/1/plugins/fr.ac6.mcu.externaltools.arm-none.linux64_1.17.0.201812190825/tools/compiler/bin/../lib/gcc/arm-none-eabi/7.3.1/../../../../arm-none-eabi/lib/thumb/v7e-m/fpv4-sp/hard/libc.a(lib_a-errno.o)
 .bss           0x0000000000000000        0x0 /home/bhavya/Downloads/1/plugins/fr.ac6.mcu.externaltools.arm-none.linux64_1.17.0.201812190825/tools/compiler/bin/../lib/gcc/arm-none-eabi/7.3.1/../../../../arm-none-eabi/lib/thumb/v7e-m/fpv4-sp/hard/libc.a(lib_a-errno.o)
 .text.__errno  0x0000000000000000        0xc /home/bhavya/Downloads/1/plugins/fr.ac6.mcu.externaltools.arm-none.linux64_1.17.0.201812190825/tools/compiler/bin/../lib/gcc/arm-none-eabi/7.3.1/../../../../arm-none-eabi/lib/thumb/v7e-m/fpv4-sp/hard/libc.a(lib_a-errno.o)
 .debug_frame   0x0000000000000000       0x20 /home/bhavya/Downloads/1/plugins/fr.ac6.mcu.externaltools.arm-none.linux64_1.17.0.201812190825/tools/compiler/bin/../lib/gcc/arm-none-eabi/7.3.1/../../../../arm-none-eabi/lib/thumb/v7e-m/fpv4-sp/hard/libc.a(lib_a-errno.o)
 .ARM.attributes
                0x0000000000000000       0x34 /home/bhavya/Downloads/1/plugins/fr.ac6.mcu.externaltools.arm-none.linux64_1.17.0.201812190825/tools/compiler/bin/../lib/gcc/arm-none-eabi/7.3.1/../../../../arm-none-eabi/lib/thumb/v7e-m/fpv4-sp/hard/libc.a(lib_a-errno.o)
 .text          0x0000000000000000        0x0 /home/bhavya/Downloads/1/plugins/fr.ac6.mcu.externaltools.arm-none.linux64_1.17.0.201812190825/tools/compiler/bin/../lib/gcc/arm-none-eabi/7.3.1/../../../../arm-none-eabi/lib/thumb/v7e-m/fpv4-sp/hard/libc.a(lib_a-exit.o)
 .data          0x0000000000000000        0x0 /home/bhavya/Downloads/1/plugins/fr.ac6.mcu.externaltools.arm-none.linux64_1.17.0.201812190825/tools/compiler/bin/../lib/gcc/arm-none-eabi/7.3.1/../../../../arm-none-eabi/lib/thumb/v7e-m/fpv4-sp/hard/libc.a(lib_a-exit.o)
 .bss           0x0000000000000000        0x0 /home/bhavya/Downloads/1/plugins/fr.ac6.mcu.externaltools.arm-none.linux64_1.17.0.201812190825/tools/compiler/bin/../lib/gcc/arm-none-eabi/7.3.1/../../../../arm-none-eabi/lib/thumb/v7e-m/fpv4-sp/hard/libc.a(lib_a-exit.o)
 .text.exit     0x0000000000000000       0x20 /home/bhavya/Downloads/1/plugins/fr.ac6.mcu.externaltools.arm-none.linux64_1.17.0.201812190825/tools/compiler/bin/../lib/gcc/arm-none-eabi/7.3.1/../../../../arm-none-eabi/lib/thumb/v7e-m/fpv4-sp/hard/libc.a(lib_a-exit.o)
 .debug_frame   0x0000000000000000       0x28 /home/bhavya/Downloads/1/plugins/fr.ac6.mcu.externaltools.arm-none.linux64_1.17.0.201812190825/tools/compiler/bin/../lib/gcc/arm-none-eabi/7.3.1/../../../../arm-none-eabi/lib/thumb/v7e-m/fpv4-sp/hard/libc.a(lib_a-exit.o)
 .ARM.attributes
                0x0000000000000000       0x34 /home/bhavya/Downloads/1/plugins/fr.ac6.mcu.externaltools.arm-none.linux64_1.17.0.201812190825/tools/compiler/bin/../lib/gcc/arm-none-eabi/7.3.1/../../../../arm-none-eabi/lib/thumb/v7e-m/fpv4-sp/hard/libc.a(lib_a-exit.o)
 .text          0x0000000000000000        0x0 /home/bhavya/Downloads/1/plugins/fr.ac6.mcu.externaltools.arm-none.linux64_1.17.0.201812190825/tools/compiler/bin/../lib/gcc/arm-none-eabi/7.3.1/../../../../arm-none-eabi/lib/thumb/v7e-m/fpv4-sp/hard/libc.a(lib_a-impure.o)
 .data          0x0000000000000000        0x0 /home/bhavya/Downloads/1/plugins/fr.ac6.mcu.externaltools.arm-none.linux64_1.17.0.201812190825/tools/compiler/bin/../lib/gcc/arm-none-eabi/7.3.1/../../../../arm-none-eabi/lib/thumb/v7e-m/fpv4-sp/hard/libc.a(lib_a-impure.o)
 .bss           0x0000000000000000        0x0 /home/bhavya/Downloads/1/plugins/fr.ac6.mcu.externaltools.arm-none.linux64_1.17.0.201812190825/tools/compiler/bin/../lib/gcc/arm-none-eabi/7.3.1/../../../../arm-none-eabi/lib/thumb/v7e-m/fpv4-sp/hard/libc.a(lib_a-impure.o)
 .data._impure_ptr
                0x0000000000000000        0x4 /home/bhavya/Downloads/1/plugins/fr.ac6.mcu.externaltools.arm-none.linux64_1.17.0.201812190825/tools/compiler/bin/../lib/gcc/arm-none-eabi/7.3.1/../../../../arm-none-eabi/lib/thumb/v7e-m/fpv4-sp/hard/libc.a(lib_a-impure.o)
 .text          0x0000000000000000        0x0 /home/bhavya/Downloads/1/plugins/fr.ac6.mcu.externaltools.arm-none.linux64_1.17.0.201812190825/tools/compiler/bin/../lib/gcc/arm-none-eabi/7.3.1/../../../../arm-none-eabi/lib/thumb/v7e-m/fpv4-sp/hard/libc.a(lib_a-init.o)
 .data          0x0000000000000000        0x0 /home/bhavya/Downloads/1/plugins/fr.ac6.mcu.externaltools.arm-none.linux64_1.17.0.201812190825/tools/compiler/bin/../lib/gcc/arm-none-eabi/7.3.1/../../../../arm-none-eabi/lib/thumb/v7e-m/fpv4-sp/hard/libc.a(lib_a-init.o)
 .bss           0x0000000000000000        0x0 /home/bhavya/Downloads/1/plugins/fr.ac6.mcu.externaltools.arm-none.linux64_1.17.0.201812190825/tools/compiler/bin/../lib/gcc/arm-none-eabi/7.3.1/../../../../arm-none-eabi/lib/thumb/v7e-m/fpv4-sp/hard/libc.a(lib_a-init.o)
 .data          0x0000000000000000        0x0 /home/bhavya/Downloads/1/plugins/fr.ac6.mcu.externaltools.arm-none.linux64_1.17.0.201812190825/tools/compiler/bin/../lib/gcc/arm-none-eabi/7.3.1/../../../../arm-none-eabi/lib/thumb/v7e-m/fpv4-sp/hard/libc.a(lib_a-memcpy.o)
 .bss           0x0000000000000000        0x0 /home/bhavya/Downloads/1/plugins/fr.ac6.mcu.externaltools.arm-none.linux64_1.17.0.201812190825/tools/compiler/bin/../lib/gcc/arm-none-eabi/7.3.1/../../../../arm-none-eabi/lib/thumb/v7e-m/fpv4-sp/hard/libc.a(lib_a-memcpy.o)
 .text          0x0000000000000000        0x0 /home/bhavya/Downloads/1/plugins/fr.ac6.mcu.externaltools.arm-none.linux64_1.17.0.201812190825/tools/compiler/bin/../lib/gcc/arm-none-eabi/7.3.1/../../../../arm-none-eabi/lib/thumb/v7e-m/fpv4-sp/hard/libc.a(lib_a-memset.o)
 .data          0x0000000000000000        0x0 /home/bhavya/Downloads/1/plugins/fr.ac6.mcu.externaltools.arm-none.linux64_1.17.0.201812190825/tools/compiler/bin/../lib/gcc/arm-none-eabi/7.3.1/../../../../arm-none-eabi/lib/thumb/v7e-m/fpv4-sp/hard/libc.a(lib_a-memset.o)
 .bss           0x0000000000000000        0x0 /home/bhavya/Downloads/1/plugins/fr.ac6.mcu.externaltools.arm-none.linux64_1.17.0.201812190825/tools/compiler/bin/../lib/gcc/arm-none-eabi/7.3.1/../../../../arm-none-eabi/lib/thumb/v7e-m/fpv4-sp/hard/libc.a(lib_a-memset.o)
 .text          0x0000000000000000        0x0 /home/bhavya/Downloads/1/plugins/fr.ac6.mcu.externaltools.arm-none.linux64_1.17.0.201812190825/tools/compiler/bin/../lib/gcc/arm-none-eabi/7.3.1/../../../../arm-none-eabi/lib/thumb/v7e-m/fpv4-sp/hard/libc.a(lib_a-__call_atexit.o)
 .data          0x0000000000000000        0x0 /home/bhavya/Downloads/1/plugins/fr.ac6.mcu.externaltools.arm-none.linux64_1.17.0.201812190825/tools/compiler/bin/../lib/gcc/arm-none-eabi/7.3.1/../../../../arm-none-eabi/lib/thumb/v7e-m/fpv4-sp/hard/libc.a(lib_a-__call_atexit.o)
 .bss           0x0000000000000000        0x0 /home/bhavya/Downloads/1/plugins/fr.ac6.mcu.externaltools.arm-none.linux64_1.17.0.201812190825/tools/compiler/bin/../lib/gcc/arm-none-eabi/7.3.1/../../../../arm-none-eabi/lib/thumb/v7e-m/fpv4-sp/hard/libc.a(lib_a-__call_atexit.o)
 .text.__call_exitprocs
                0x0000000000000000       0xe8 /home/bhavya/Downloads/1/plugins/fr.ac6.mcu.externaltools.arm-none.linux64_1.17.0.201812190825/tools/compiler/bin/../lib/gcc/arm-none-eabi/7.3.1/../../../../arm-none-eabi/lib/thumb/v7e-m/fpv4-sp/hard/libc.a(lib_a-__call_atexit.o)
 .text          0x0000000000000000        0x0 /home/bhavya/Downloads/1/plugins/fr.ac6.mcu.externaltools.arm-none.linux64_1.17.0.201812190825/tools/compiler/bin/../lib/gcc/arm-none-eabi/7.3.1/../../../../arm-none-eabi/lib/thumb/v7e-m/fpv4-sp/hard/libc.a(lib_a-atexit.o)
 .data          0x0000000000000000        0x0 /home/bhavya/Downloads/1/plugins/fr.ac6.mcu.externaltools.arm-none.linux64_1.17.0.201812190825/tools/compiler/bin/../lib/gcc/arm-none-eabi/7.3.1/../../../../arm-none-eabi/lib/thumb/v7e-m/fpv4-sp/hard/libc.a(lib_a-atexit.o)
 .bss           0x0000000000000000        0x0 /home/bhavya/Downloads/1/plugins/fr.ac6.mcu.externaltools.arm-none.linux64_1.17.0.201812190825/tools/compiler/bin/../lib/gcc/arm-none-eabi/7.3.1/../../../../arm-none-eabi/lib/thumb/v7e-m/fpv4-sp/hard/libc.a(lib_a-atexit.o)
 .text          0x0000000000000000        0x0 /home/bhavya/Downloads/1/plugins/fr.ac6.mcu.externaltools.arm-none.linux64_1.17.0.201812190825/tools/compiler/bin/../lib/gcc/arm-none-eabi/7.3.1/../../../../arm-none-eabi/lib/thumb/v7e-m/fpv4-sp/hard/libc.a(lib_a-fini.o)
 .data          0x0000000000000000        0x0 /home/bhavya/Downloads/1/plugins/fr.ac6.mcu.externaltools.arm-none.linux64_1.17.0.201812190825/tools/compiler/bin/../lib/gcc/arm-none-eabi/7.3.1/../../../../arm-none-eabi/lib/thumb/v7e-m/fpv4-sp/hard/libc.a(lib_a-fini.o)
 .bss           0x0000000000000000        0x0 /home/bhavya/Downloads/1/plugins/fr.ac6.mcu.externaltools.arm-none.linux64_1.17.0.201812190825/tools/compiler/bin/../lib/gcc/arm-none-eabi/7.3.1/../../../../arm-none-eabi/lib/thumb/v7e-m/fpv4-sp/hard/libc.a(lib_a-fini.o)
 .text          0x0000000000000000        0x0 /home/bhavya/Downloads/1/plugins/fr.ac6.mcu.externaltools.arm-none.linux64_1.17.0.201812190825/tools/compiler/bin/../lib/gcc/arm-none-eabi/7.3.1/../../../../arm-none-eabi/lib/thumb/v7e-m/fpv4-sp/hard/libc.a(lib_a-lock.o)
 .data          0x0000000000000000        0x0 /home/bhavya/Downloads/1/plugins/fr.ac6.mcu.externaltools.arm-none.linux64_1.17.0.201812190825/tools/compiler/bin/../lib/gcc/arm-none-eabi/7.3.1/../../../../arm-none-eabi/lib/thumb/v7e-m/fpv4-sp/hard/libc.a(lib_a-lock.o)
 .bss           0x0000000000000000        0x0 /home/bhavya/Downloads/1/plugins/fr.ac6.mcu.externaltools.arm-none.linux64_1.17.0.201812190825/tools/compiler/bin/../lib/gcc/arm-none-eabi/7.3.1/../../../../arm-none-eabi/lib/thumb/v7e-m/fpv4-sp/hard/libc.a(lib_a-lock.o)
 .text.__retarget_lock_init
                0x0000000000000000        0x4 /home/bhavya/Downloads/1/plugins/fr.ac6.mcu.externaltools.arm-none.linux64_1.17.0.201812190825/tools/compiler/bin/../lib/gcc/arm-none-eabi/7.3.1/../../../../arm-none-eabi/lib/thumb/v7e-m/fpv4-sp/hard/libc.a(lib_a-lock.o)
 .text.__retarget_lock_init_recursive
                0x0000000000000000        0x4 /home/bhavya/Downloads/1/plugins/fr.ac6.mcu.externaltools.arm-none.linux64_1.17.0.201812190825/tools/compiler/bin/../lib/gcc/arm-none-eabi/7.3.1/../../../../arm-none-eabi/lib/thumb/v7e-m/fpv4-sp/hard/libc.a(lib_a-lock.o)
 .text.__retarget_lock_close
                0x0000000000000000        0x4 /home/bhavya/Downloads/1/plugins/fr.ac6.mcu.externaltools.arm-none.linux64_1.17.0.201812190825/tools/compiler/bin/../lib/gcc/arm-none-eabi/7.3.1/../../../../arm-none-eabi/lib/thumb/v7e-m/fpv4-sp/hard/libc.a(lib_a-lock.o)
 .text.__retarget_lock_close_recursive
                0x0000000000000000        0x4 /home/bhavya/Downloads/1/plugins/fr.ac6.mcu.externaltools.arm-none.linux64_1.17.0.201812190825/tools/compiler/bin/../lib/gcc/arm-none-eabi/7.3.1/../../../../arm-none-eabi/lib/thumb/v7e-m/fpv4-sp/hard/libc.a(lib_a-lock.o)
 .text.__retarget_lock_acquire
                0x0000000000000000        0x4 /home/bhavya/Downloads/1/plugins/fr.ac6.mcu.externaltools.arm-none.linux64_1.17.0.201812190825/tools/compiler/bin/../lib/gcc/arm-none-eabi/7.3.1/../../../../arm-none-eabi/lib/thumb/v7e-m/fpv4-sp/hard/libc.a(lib_a-lock.o)
 .text.__retarget_lock_try_acquire
                0x0000000000000000        0x4 /home/bhavya/Downloads/1/plugins/fr.ac6.mcu.externaltools.arm-none.linux64_1.17.0.201812190825/tools/compiler/bin/../lib/gcc/arm-none-eabi/7.3.1/../../../../arm-none-eabi/lib/thumb/v7e-m/fpv4-sp/hard/libc.a(lib_a-lock.o)
 .text.__retarget_lock_try_acquire_recursive
                0x0000000000000000        0x4 /home/bhavya/Downloads/1/plugins/fr.ac6.mcu.externaltools.arm-none.linux64_1.17.0.201812190825/tools/compiler/bin/../lib/gcc/arm-none-eabi/7.3.1/../../../../arm-none-eabi/lib/thumb/v7e-m/fpv4-sp/hard/libc.a(lib_a-lock.o)
 .text.__retarget_lock_release
                0x0000000000000000        0x4 /home/bhavya/Downloads/1/plugins/fr.ac6.mcu.externaltools.arm-none.linux64_1.17.0.201812190825/tools/compiler/bin/../lib/gcc/arm-none-eabi/7.3.1/../../../../arm-none-eabi/lib/thumb/v7e-m/fpv4-sp/hard/libc.a(lib_a-lock.o)
 .text          0x0000000000000000        0x0 /home/bhavya/Downloads/1/plugins/fr.ac6.mcu.externaltools.arm-none.linux64_1.17.0.201812190825/tools/compiler/bin/../lib/gcc/arm-none-eabi/7.3.1/../../../../arm-none-eabi/lib/thumb/v7e-m/fpv4-sp/hard/libc.a(lib_a-__atexit.o)
 .data          0x0000000000000000        0x0 /home/bhavya/Downloads/1/plugins/fr.ac6.mcu.externaltools.arm-none.linux64_1.17.0.201812190825/tools/compiler/bin/../lib/gcc/arm-none-eabi/7.3.1/../../../../arm-none-eabi/lib/thumb/v7e-m/fpv4-sp/hard/libc.a(lib_a-__atexit.o)
 .bss           0x0000000000000000        0x0 /home/bhavya/Downloads/1/plugins/fr.ac6.mcu.externaltools.arm-none.linux64_1.17.0.201812190825/tools/compiler/bin/../lib/gcc/arm-none-eabi/7.3.1/../../../../arm-none-eabi/lib/thumb/v7e-m/fpv4-sp/hard/libc.a(lib_a-__atexit.o)
 .text          0x0000000000000000        0x0 /home/bhavya/Downloads/1/plugins/fr.ac6.mcu.externaltools.arm-none.linux64_1.17.0.201812190825/tools/compiler/bin/../lib/gcc/arm-none-eabi/7.3.1/thumb/v7e-m/fpv4-sp/hard/crtend.o
 .data          0x0000000000000000        0x0 /home/bhavya/Downloads/1/plugins/fr.ac6.mcu.externaltools.arm-none.linux64_1.17.0.201812190825/tools/compiler/bin/../lib/gcc/arm-none-eabi/7.3.1/thumb/v7e-m/fpv4-sp/hard/crtend.o
 .bss           0x0000000000000000        0x0 /home/bhavya/Downloads/1/plugins/fr.ac6.mcu.externaltools.arm-none.linux64_1.17.0.201812190825/tools/compiler/bin/../lib/gcc/arm-none-eabi/7.3.1/thumb/v7e-m/fpv4-sp/hard/crtend.o
 .eh_frame      0x0000000000000000        0x4 /home/bhavya/Downloads/1/plugins/fr.ac6.mcu.externaltools.arm-none.linux64_1.17.0.201812190825/tools/compiler/bin/../lib/gcc/arm-none-eabi/7.3.1/thumb/v7e-m/fpv4-sp/hard/crtend.o
 .ARM.attributes
                0x0000000000000000       0x34 /home/bhavya/Downloads/1/plugins/fr.ac6.mcu.externaltools.arm-none.linux64_1.17.0.201812190825/tools/compiler/bin/../lib/gcc/arm-none-eabi/7.3.1/thumb/v7e-m/fpv4-sp/hard/crtend.o
 .text          0x0000000000000000        0x0 /home/bhavya/Downloads/1/plugins/fr.ac6.mcu.externaltools.arm-none.linux64_1.17.0.201812190825/tools/compiler/bin/../lib/gcc/arm-none-eabi/7.3.1/thumb/v7e-m/fpv4-sp/hard/crtn.o
 .data          0x0000000000000000        0x0 /home/bhavya/Downloads/1/plugins/fr.ac6.mcu.externaltools.arm-none.linux64_1.17.0.201812190825/tools/compiler/bin/../lib/gcc/arm-none-eabi/7.3.1/thumb/v7e-m/fpv4-sp/hard/crtn.o
 .bss           0x0000000000000000        0x0 /home/bhavya/Downloads/1/plugins/fr.ac6.mcu.externaltools.arm-none.linux64_1.17.0.201812190825/tools/compiler/bin/../lib/gcc/arm-none-eabi/7.3.1/thumb/v7e-m/fpv4-sp/hard/crtn.o

Memory Configuration

Name             Origin             Length             Attributes
RAM              0x0000000020000000 0x0000000000020000 xrw
ROM              0x0000000008000000 0x0000000000080000 xr
*default*        0x0000000000000000 0xffffffffffffffff

Linker script and memory map

LOAD /home/bhavya/Downloads/1/plugins/fr.ac6.mcu.externaltools.arm-none.linux64_1.17.0.201812190825/tools/compiler/bin/../lib/gcc/arm-none-eabi/7.3.1/thumb/v7e-m/fpv4-sp/hard/crti.o
LOAD /home/bhavya/Downloads/1/plugins/fr.ac6.mcu.externaltools.arm-none.linux64_1.17.0.201812190825/tools/compiler/bin/../lib/gcc/arm-none-eabi/7.3.1/thumb/v7e-m/fpv4-sp/hard/crtbegin.o
LOAD /home/bhavya/Downloads/1/plugins/fr.ac6.mcu.externaltools.arm-none.linux64_1.17.0.201812190825/tools/compiler/bin/../lib/gcc/arm-none-eabi/7.3.1/../../../../arm-none-eabi/lib/thumb/v7e-m/fpv4-sp/hard/crt0.o
LOAD Ventilation/src/ACTUATOR/ACT_BlowerCmd.o
LOAD Ventilation/src/ACTUATOR/ACT_BrakePower.o
LOAD Ventilation/src/DATABASE/DB_AlarmInfoWrite.o
LOAD Ventilation/src/DATABASE/DB_AlarmStatusWrite.o
LOAD Ventilation/src/DATABASE/DB_ComputeRead.o
LOAD Ventilation/src/DATABASE/DB_ComputeWrite.o
LOAD Ventilation/src/DATABASE/DB_ConfigRead.o
LOAD Ventilation/src/DATABASE/DB_ConfigWrite.o
LOAD Ventilation/src/DATABASE/DB_ControlRead.o
LOAD Ventilation/src/DATABASE/DB_ControlWrite.o
LOAD Ventilation/src/DATABASE/DB_CurrentRead.o
LOAD Ventilation/src/DATABASE/DB_EventMngt.o
LOAD Ventilation/src/DATABASE/DB_MeasurementWrite.o
LOAD Ventilation/src/DATABASE/DB_RTCRead.o
LOAD Ventilation/src/DATABASE/DB_RTCWrite.o
LOAD Ventilation/src/DATABASE/DB_StartInitDb.o
LOAD Ventilation/src/DATABASE/DB_TrendWrite.o
LOAD Ventilation/src/DATABASE_SETTINGS/DB_IhmAccessParaDataBase.o
LOAD Ventilation/src/DISPLAY/DIS_FifoRead.o
LOAD Ventilation/src/GENERAL/Saturation.o
LOAD Ventilation/src/INTERRUPTS/It_watchdog.o
LOAD Ventilation/src/MAIN/MAIN_Global_Variables_Init.o
LOAD Ventilation/src/MAIN/MAIN_Interfaces_Init.o
LOAD Ventilation/src/MAIN/MAIN_Security_Init.o
LOAD Ventilation/src/MAIN/MAIN_System_Init.o
LOAD Ventilation/src/MAIN/MAIN_Target_Init.o
LOAD Ventilation/src/MAIN/MAIN_Tasks_Init.o
LOAD Ventilation/src/MAIN/MAIN_Ventilation_Init.o
LOAD Ventilation/src/SCHEDULER/SCHED_Setup_Main.o
LOAD Ventilation/src/SCHEDULER/SCHED_Setup_entry.o
LOAD Ventilation/src/SCHEDULER/SCHED_Ventilation_Main.o
LOAD Ventilation/src/SCHEDULER/SCHED_Ventilation_entry.o
LOAD Ventilation/src/SECURITY/VEN_Security.o
LOAD Ventilation/src/SET_UP/SET_Actuator.o
LOAD Ventilation/src/SET_UP/SET_CalibrationManagement.o
LOAD Ventilation/src/SET_UP/SET_RTC_Mngt.o
LOAD Ventilation/src/SET_UP/SET_TechnicalAlarms.o
LOAD Ventilation/src/SYSTEM/INT_AbsPress_Interpol.o
LOAD Ventilation/src/SYSTEM/INT_BlowerTemperatureInterpol.o
LOAD Ventilation/src/SYSTEM/INT_ExhFlow_Interpol.o
LOAD Ventilation/src/SYSTEM/INT_Fio2_Interpol.o
LOAD Ventilation/src/SYSTEM/INT_Flow_Conversion_Equation.o
LOAD Ventilation/src/SYSTEM/INT_InspFlow_Interpol.o
LOAD Ventilation/src/SYSTEM/INT_O2Flow_Interpol.o
LOAD Ventilation/src/SYSTEM/INT_O2Press_Interpol.o
LOAD Ventilation/src/SYSTEM/INT_PatPress_Interpol.o
LOAD Ventilation/src/SYSTEM/INT_ProxiPress_Interpol.o
LOAD Ventilation/src/SYSTEM/INT_SpeedBlow_Interpol.o
LOAD Ventilation/src/SYSTEM/INT_ValvePress_Interpol.o
LOAD Ventilation/src/SYSTEM/INT_Voltages_Interpol.o
LOAD Ventilation/src/SYSTEM/SYS_Backlight_Mngt.o
LOAD Ventilation/src/SYSTEM/SYS_CurveFlowCalcul.o
LOAD Ventilation/src/SYSTEM/SYS_Fio2Detection.o
LOAD Ventilation/src/SYSTEM/SYS_Interpolation.o
LOAD Ventilation/src/SYSTEM/SYS_Keyboard.o
LOAD Ventilation/src/SYSTEM/SYS_RTC_Update.o
LOAD Ventilation/src/SYSTEM/SYS_SetupLaunch.o
LOAD Ventilation/src/SYSTEM/SYS_SupplyDetect.o
LOAD Ventilation/src/SYSTEM/SYS_VentilationLaunch.o
LOAD Ventilation/src/TIMERS/TIM_Launch.o
LOAD Ventilation/src/TIMERS/TIM_ReadCounterValue.o
LOAD Ventilation/src/TIMERS/TIM_ReadDecounterValue.o
LOAD Ventilation/src/TIMERS/TIM_StartDecounter.o
LOAD Ventilation/src/TIMERS/TIM_Temporize.o
LOAD Ventilation/src/VENTILATION/VEN_Actuators.o
LOAD Ventilation/src/VENTILATION/VEN_Compute.o
LOAD Ventilation/src/VENTILATION/VEN_Cycles.o
LOAD Ventilation/src/VENTILATION/VEN_RiseCompute.o
LOAD src/MAIN.o
LOAD startup/startup_stm32.o
LOAD startup/sysmem.o
LOAD /home/bhavya/Downloads/1/plugins/fr.ac6.mcu.externaltools.arm-none.linux64_1.17.0.201812190825/tools/compiler/bin/../lib/gcc/arm-none-eabi/7.3.1/../../../../arm-none-eabi/lib/thumb/v7e-m/fpv4-sp/hard/libm.a
START GROUP
LOAD /home/bhavya/Downloads/1/plugins/fr.ac6.mcu.externaltools.arm-none.linux64_1.17.0.201812190825/tools/compiler/bin/../lib/gcc/arm-none-eabi/7.3.1/thumb/v7e-m/fpv4-sp/hard/libgcc.a
LOAD /home/bhavya/Downloads/1/plugins/fr.ac6.mcu.externaltools.arm-none.linux64_1.17.0.201812190825/tools/compiler/bin/../lib/gcc/arm-none-eabi/7.3.1/../../../../arm-none-eabi/lib/thumb/v7e-m/fpv4-sp/hard/libc.a
END GROUP
LOAD /home/bhavya/Downloads/1/plugins/fr.ac6.mcu.externaltools.arm-none.linux64_1.17.0.201812190825/tools/compiler/bin/../lib/gcc/arm-none-eabi/7.3.1/thumb/v7e-m/fpv4-sp/hard/crtend.o
LOAD /home/bhavya/Downloads/1/plugins/fr.ac6.mcu.externaltools.arm-none.linux64_1.17.0.201812190825/tools/compiler/bin/../lib/gcc/arm-none-eabi/7.3.1/thumb/v7e-m/fpv4-sp/hard/crtn.o
                0x0000000020020000                _estack = 0x20020000
                0x0000000000000000                _Min_Heap_Size = 0x0
                0x0000000000000400                _Min_Stack_Size = 0x400

.isr_vector     0x0000000008000000      0x1c4
                0x0000000008000000                . = ALIGN (0x4)
 *(.isr_vector)
 .isr_vector    0x0000000008000000      0x1c4 startup/startup_stm32.o
                0x0000000008000000                g_pfnVectors
                0x00000000080001c4                . = ALIGN (0x4)

.text           0x00000000080001c4     0x3344
                0x00000000080001c4                . = ALIGN (0x4)
 *(.text)
 .text          0x00000000080001c4       0x40 /home/bhavya/Downloads/1/plugins/fr.ac6.mcu.externaltools.arm-none.linux64_1.17.0.201812190825/tools/compiler/bin/../lib/gcc/arm-none-eabi/7.3.1/thumb/v7e-m/fpv4-sp/hard/crtbegin.o
 .text          0x0000000008000204      0x134 /home/bhavya/Downloads/1/plugins/fr.ac6.mcu.externaltools.arm-none.linux64_1.17.0.201812190825/tools/compiler/bin/../lib/gcc/arm-none-eabi/7.3.1/../../../../arm-none-eabi/lib/thumb/v7e-m/fpv4-sp/hard/libc.a(lib_a-memcpy.o)
                0x0000000008000204                memcpy
 *(.text*)
 .text.ACT_BrakePower
                0x0000000008000338       0x48 Ventilation/src/ACTUATOR/ACT_BrakePower.o
                0x0000000008000338                ACT_BrakePower
 .text.DB_AlarmInfoWrite
                0x0000000008000380       0x58 Ventilation/src/DATABASE/DB_AlarmInfoWrite.o
                0x0000000008000380                DB_AlarmInfoWrite
 .text.DB_AlarmStatusWrite
                0x00000000080003d8       0x50 Ventilation/src/DATABASE/DB_AlarmStatusWrite.o
                0x00000000080003d8                DB_AlarmStatusWrite
 .text.DB_ComputeRead
                0x0000000008000428       0x24 Ventilation/src/DATABASE/DB_ComputeRead.o
                0x0000000008000428                DB_ComputeRead
 .text.DB_ComputeWrite
                0x000000000800044c       0xf8 Ventilation/src/DATABASE/DB_ComputeWrite.o
                0x000000000800044c                DB_ComputeWrite
 .text.DB_ConfigRead
                0x0000000008000544       0x24 Ventilation/src/DATABASE/DB_ConfigRead.o
                0x0000000008000544                DB_ConfigRead
 .text.DB_ControlRead
                0x0000000008000568       0x24 Ventilation/src/DATABASE/DB_ControlRead.o
                0x0000000008000568                DB_ControlRead
 .text.DB_ControlWrite
                0x000000000800058c       0x2c Ventilation/src/DATABASE/DB_ControlWrite.o
                0x000000000800058c                DB_ControlWrite
 .text.DB_CurrentRead
                0x00000000080005b8       0x24 Ventilation/src/DATABASE/DB_CurrentRead.o
                0x00000000080005b8                DB_CurrentRead
 .text.DB_EventMngt
                0x00000000080005dc      0x7a4 Ventilation/src/DATABASE/DB_EventMngt.o
                0x00000000080005dc                DB_EventMngt
 .text.DRV_EVENT_PushEvent
                0x0000000008000d80       0x1c Ventilation/src/DATABASE/DB_EventMngt.o
                0x0000000008000d80                DRV_EVENT_PushEvent
 .text.DB_MeasurementWrite
                0x0000000008000d9c       0x18 Ventilation/src/DATABASE/DB_MeasurementWrite.o
                0x0000000008000d9c                DB_MeasurementWrite
 .text.DB_RTCRead
                0x0000000008000db4       0x24 Ventilation/src/DATABASE/DB_RTCRead.o
                0x0000000008000db4                DB_RTCRead
 .text.DB_RTCWrite
                0x0000000008000dd8       0x2c Ventilation/src/DATABASE/DB_RTCWrite.o
                0x0000000008000dd8                DB_RTCWrite
 .text.DB_TrendWrite
                0x0000000008000e04       0x78 Ventilation/src/DATABASE/DB_TrendWrite.o
                0x0000000008000e04                DB_TrendWrite
 .text.DIS_FifoRead
                0x0000000008000e7c        0xe Ventilation/src/DISPLAY/DIS_FifoRead.o
                0x0000000008000e7c                DIS_FifoRead
 .text.saturation
                0x0000000008000e8a       0x3e Ventilation/src/GENERAL/Saturation.o
                0x0000000008000e8a                saturation
 .text.It_watchdog
                0x0000000008000ec8       0x24 Ventilation/src/INTERRUPTS/It_watchdog.o
                0x0000000008000ec8                It_watchdog
 .text.MAIN_Global_Variables_Init
                0x0000000008000eec      0x214 Ventilation/src/MAIN/MAIN_Global_Variables_Init.o
                0x0000000008000eec                MAIN_Global_Variables_Init
 .text.MAIN_Interfaces_Init
                0x0000000008001100      0x11c Ventilation/src/MAIN/MAIN_Interfaces_Init.o
                0x0000000008001100                MAIN_Interfaces_Init
 .text.MAIN_Security_Init
                0x000000000800121c      0x23c Ventilation/src/MAIN/MAIN_Security_Init.o
                0x000000000800121c                MAIN_Security_Init
 .text.MAIN_System_Init
                0x0000000008001458       0x94 Ventilation/src/MAIN/MAIN_System_Init.o
                0x0000000008001458                MAIN_System_Init
 .text._srvwdt_
                0x00000000080014ec        0xe Ventilation/src/MAIN/MAIN_Target_Init.o
                0x00000000080014ec                _srvwdt_
 *fill*         0x00000000080014fa        0x2 
 .text.MAIN_Target_Init_FirstStep
                0x00000000080014fc       0xbc Ventilation/src/MAIN/MAIN_Target_Init.o
                0x00000000080014fc                MAIN_Target_Init_FirstStep
 .text.MAIN_Target_Init_SecondStep
                0x00000000080015b8       0x58 Ventilation/src/MAIN/MAIN_Target_Init.o
                0x00000000080015b8                MAIN_Target_Init_SecondStep
 .text.MAIN_Target_Init
                0x0000000008001610       0x10 Ventilation/src/MAIN/MAIN_Target_Init.o
                0x0000000008001610                MAIN_Target_Init
 .text.DRV_OutputPort
                0x0000000008001620       0x18 Ventilation/src/MAIN/MAIN_Target_Init.o
                0x0000000008001620                DRV_OutputPort
 .text.MAIN_Tasks_Init
                0x0000000008001638       0x14 Ventilation/src/MAIN/MAIN_Tasks_Init.o
                0x0000000008001638                MAIN_Tasks_Init
 .text.MAIN_Ventilation_Init
                0x000000000800164c       0xfc Ventilation/src/MAIN/MAIN_Ventilation_Init.o
                0x000000000800164c                MAIN_Ventilation_Init
 .text.SCHED_Setup_Main
                0x0000000008001748       0x20 Ventilation/src/SCHEDULER/SCHED_Setup_Main.o
                0x0000000008001748                SCHED_Setup_Main
 .text.DRV_EVENT_Launch
                0x0000000008001768        0xe Ventilation/src/SCHEDULER/SCHED_Setup_entry.o
                0x0000000008001768                DRV_EVENT_Launch
 .text.HMI_KeyboardEventLaunch
                0x0000000008001776        0xe Ventilation/src/SCHEDULER/SCHED_Setup_entry.o
                0x0000000008001776                HMI_KeyboardEventLaunch
 .text.IHM_TimerEventLauch
                0x0000000008001784        0xe Ventilation/src/SCHEDULER/SCHED_Setup_entry.o
                0x0000000008001784                IHM_TimerEventLauch
 .text.DRV_COM_Launch
                0x0000000008001792        0xe Ventilation/src/SCHEDULER/SCHED_Setup_entry.o
                0x0000000008001792                DRV_COM_Launch
 .text.DRV_SPIPowerSupplyUpdate
                0x00000000080017a0        0xe Ventilation/src/SCHEDULER/SCHED_Setup_entry.o
                0x00000000080017a0                DRV_SPIPowerSupplyUpdate
 *fill*         0x00000000080017ae        0x2 
 .text.SCHED_Setup_entry
                0x00000000080017b0       0x8c Ventilation/src/SCHEDULER/SCHED_Setup_entry.o
                0x00000000080017b0                SCHED_Setup_entry
 .text.SCHED_Ventilation_Main
                0x000000000800183c        0xe Ventilation/src/SCHEDULER/SCHED_Ventilation_Main.o
                0x000000000800183c                SCHED_Ventilation_Main
 .text.SET_Actuator
                0x000000000800184a        0xe Ventilation/src/SET_UP/SET_Actuator.o
                0x000000000800184a                SET_Actuator
 .text.SET_CalibrationManagement
                0x0000000008001858        0xe Ventilation/src/SET_UP/SET_CalibrationManagement.o
                0x0000000008001858                SET_CalibrationManagement
 .text.SET_RTC_Mngt
                0x0000000008001866        0xe Ventilation/src/SET_UP/SET_RTC_Mngt.o
                0x0000000008001866                SET_RTC_Mngt
 .text.SET_TechnicalAlarms
                0x0000000008001874        0xe Ventilation/src/SET_UP/SET_TechnicalAlarms.o
                0x0000000008001874                SET_TechnicalAlarms
 *fill*         0x0000000008001882        0x2 
 .text.INT_AbsPress_Interpol
                0x0000000008001884      0x124 Ventilation/src/SYSTEM/INT_AbsPress_Interpol.o
                0x0000000008001884                INT_AbsPress_Interpol
 .text.INT_BlowerTemperatureInterpol
                0x00000000080019a8      0x1b4 Ventilation/src/SYSTEM/INT_BlowerTemperatureInterpol.o
                0x00000000080019a8                INT_BlowerTemperatureInterpol
 .text.INT_ExhFlow_Interpol
                0x0000000008001b5c      0x39c Ventilation/src/SYSTEM/INT_ExhFlow_Interpol.o
                0x0000000008001b5c                INT_ExhFlow_Interpol
 .text.INT_Fio2_Interpol
                0x0000000008001ef8      0x110 Ventilation/src/SYSTEM/INT_Fio2_Interpol.o
                0x0000000008001ef8                INT_Fio2_Interpol
 .text.INT_Flow_Conversion_Equation
                0x0000000008002008       0x9c Ventilation/src/SYSTEM/INT_Flow_Conversion_Equation.o
                0x0000000008002008                INT_Flow_Conversion_Equation
 .text.INT_InspFlow_Interpol
                0x00000000080020a4      0x43c Ventilation/src/SYSTEM/INT_InspFlow_Interpol.o
                0x00000000080020a4                INT_InspFlow_Interpol
 .text.INT_O2Flow_Interpol
                0x00000000080024e0      0x238 Ventilation/src/SYSTEM/INT_O2Flow_Interpol.o
                0x00000000080024e0                INT_O2Flow_Interpol
 .text.INT_O2Press_Interpol
                0x0000000008002718       0xf4 Ventilation/src/SYSTEM/INT_O2Press_Interpol.o
                0x0000000008002718                INT_O2Press_Interpol
 .text.INT_PatPress_Interpol
                0x000000000800280c       0xf0 Ventilation/src/SYSTEM/INT_PatPress_Interpol.o
                0x000000000800280c                INT_PatPress_Interpol
 .text.INT_ProxiPress_Interpol
                0x00000000080028fc       0xec Ventilation/src/SYSTEM/INT_ProxiPress_Interpol.o
                0x00000000080028fc                INT_ProxiPress_Interpol
 .text.INT_SpeedBlow_Interpol
                0x00000000080029e8       0xec Ventilation/src/SYSTEM/INT_SpeedBlow_Interpol.o
                0x00000000080029e8                INT_SpeedBlow_Interpol
 .text.INT_ValvePress_Interpol
                0x0000000008002ad4      0x100 Ventilation/src/SYSTEM/INT_ValvePress_Interpol.o
                0x0000000008002ad4                INT_ValvePress_Interpol
 .text.INT_Voltages_Interpol
                0x0000000008002bd4      0x15c Ventilation/src/SYSTEM/INT_Voltages_Interpol.o
                0x0000000008002bd4                INT_Voltages_Interpol
 .text.SYS_Backlight_Mngt
                0x0000000008002d30        0xe Ventilation/src/SYSTEM/SYS_Backlight_Mngt.o
                0x0000000008002d30                SYS_Backlight_Mngt
 .text.SYS_CurveFlowCalcul
                0x0000000008002d3e       0xa8 Ventilation/src/SYSTEM/SYS_CurveFlowCalcul.o
                0x0000000008002d3e                SYS_CurveFlowCalcul
 .text.SYS_Fio2Detection
                0x0000000008002de6        0xe Ventilation/src/SYSTEM/SYS_Fio2Detection.o
                0x0000000008002de6                SYS_Fio2Detection
 .text.SYS_Interpolation
                0x0000000008002df4       0x4c Ventilation/src/SYSTEM/SYS_Interpolation.o
                0x0000000008002df4                SYS_Interpolation
 .text.SYS_Keyboard
                0x0000000008002e40        0xe Ventilation/src/SYSTEM/SYS_Keyboard.o
                0x0000000008002e40                SYS_Keyboard
 .text.SYS_SetupLaunch
                0x0000000008002e4e       0x14 Ventilation/src/SYSTEM/SYS_SetupLaunch.o
                0x0000000008002e4e                SYS_SetupLaunch
 .text.SYS_SupplyDetect
                0x0000000008002e62        0xe Ventilation/src/SYSTEM/SYS_SupplyDetect.o
                0x0000000008002e62                SYS_SupplyDetect
 .text.TIM_Launch
                0x0000000008002e70      0x198 Ventilation/src/TIMERS/TIM_Launch.o
                0x0000000008002e70                TIM_Launch
 .text.TIM_ReadCounterValue
                0x0000000008003008       0x2c Ventilation/src/TIMERS/TIM_ReadCounterValue.o
                0x0000000008003008                TIM_ReadCounterValue
 .text.TIM_ReadDecounterValue
                0x0000000008003034       0x2c Ventilation/src/TIMERS/TIM_ReadDecounterValue.o
                0x0000000008003034                TIM_ReadDecounterValue
 .text.TIM_StartDecounter
                0x0000000008003060       0x58 Ventilation/src/TIMERS/TIM_StartDecounter.o
                0x0000000008003060                TIM_StartDecounter
 .text.TIM_Temporize
                0x00000000080030b8       0xd0 Ventilation/src/TIMERS/TIM_Temporize.o
                0x00000000080030b8                TIM_Temporize
 .text.VEN_RiseCompute
                0x0000000008003188       0x1c Ventilation/src/VENTILATION/VEN_RiseCompute.o
                0x0000000008003188                VEN_RiseCompute
 .text.main     0x00000000080031a4       0xbc src/MAIN.o
                0x00000000080031a4                main
 .text.CIRCUIT_CHECK_HMI_Start
                0x0000000008003260        0xe src/MAIN.o
                0x0000000008003260                CIRCUIT_CHECK_HMI_Start
 .text.SETUP_HMI_Start
                0x000000000800326e        0xe src/MAIN.o
                0x000000000800326e                SETUP_HMI_Start
 .text.VENTILATION_HMI_Start
                0x000000000800327c        0xe src/MAIN.o
                0x000000000800327c                VENTILATION_HMI_Start
 .text.KEY_Touch_Detection
                0x000000000800328a       0x18 src/MAIN.o
                0x000000000800328a                KEY_Touch_Detection
 *fill*         0x00000000080032a2        0x2 
 .text.Reset_Handler
                0x00000000080032a4       0x50 startup/startup_stm32.o
                0x00000000080032a4                Reset_Handler
 .text.Default_Handler
                0x00000000080032f4        0x2 startup/startup_stm32.o
                0x00000000080032f4                RTC_Alarm_IRQHandler
                0x00000000080032f4                EXTI2_IRQHandler
                0x00000000080032f4                TIM8_CC_IRQHandler
                0x00000000080032f4                SPDIF_Rx_IRQHandler
                0x00000000080032f4                DebugMon_Handler
                0x00000000080032f4                SPI4_IRQHandler
                0x00000000080032f4                TIM1_CC_IRQHandler
                0x00000000080032f4                QuadSPI_IRQHandler
                0x00000000080032f4                DMA2_Stream5_IRQHandler
                0x00000000080032f4                HardFault_Handler
                0x00000000080032f4                DMA1_Stream5_IRQHandler
                0x00000000080032f4                SysTick_Handler
                0x00000000080032f4                PVD_IRQHandler
                0x00000000080032f4                SDIO_IRQHandler
                0x00000000080032f4                TAMP_STAMP_IRQHandler
                0x00000000080032f4                PendSV_Handler
                0x00000000080032f4                NMI_Handler
                0x00000000080032f4                CAN2_RX1_IRQHandler
                0x00000000080032f4                EXTI3_IRQHandler
                0x00000000080032f4                TIM8_TRG_COM_TIM14_IRQHandler
                0x00000000080032f4                TIM1_UP_TIM10_IRQHandler
                0x00000000080032f4                FMPI2C1_error_IRQHandler
                0x00000000080032f4                TIM8_UP_TIM13_IRQHandler
                0x00000000080032f4                I2C3_ER_IRQHandler
                0x00000000080032f4                EXTI0_IRQHandler
                0x00000000080032f4                I2C2_EV_IRQHandler
                0x00000000080032f4                DMA1_Stream2_IRQHandler
                0x00000000080032f4                CAN1_RX0_IRQHandler
                0x00000000080032f4                FPU_IRQHandler
                0x00000000080032f4                OTG_HS_WKUP_IRQHandler
                0x00000000080032f4                UsageFault_Handler
                0x00000000080032f4                CAN2_SCE_IRQHandler
                0x00000000080032f4                DMA2_Stream2_IRQHandler
                0x00000000080032f4                SPI1_IRQHandler
                0x00000000080032f4                TIM6_DAC_IRQHandler
                0x00000000080032f4                TIM1_BRK_TIM9_IRQHandler
                0x00000000080032f4                DCMI_IRQHandler
                0x00000000080032f4                CAN2_RX0_IRQHandler
                0x00000000080032f4                DMA2_Stream3_IRQHandler
                0x00000000080032f4                FMPI2C1_IRQHandler
                0x00000000080032f4                SAI2_IRQHandler
                0x00000000080032f4                USART6_IRQHandler
                0x00000000080032f4                USART3_IRQHandler
                0x00000000080032f4                CAN1_RX1_IRQHandler
                0x00000000080032f4                UART5_IRQHandler
                0x00000000080032f4                DMA2_Stream0_IRQHandler
                0x00000000080032f4                TIM4_IRQHandler
                0x00000000080032f4                I2C1_EV_IRQHandler
                0x00000000080032f4                HDMI_CEC_IRQHandler
                0x00000000080032f4                DMA1_Stream6_IRQHandler
                0x00000000080032f4                DMA1_Stream1_IRQHandler
                0x00000000080032f4                UART4_IRQHandler
                0x00000000080032f4                TIM3_IRQHandler
                0x00000000080032f4                RCC_IRQHandler
                0x00000000080032f4                TIM8_BRK_TIM12_IRQHandler
                0x00000000080032f4                Default_Handler
                0x00000000080032f4                EXTI15_10_IRQHandler
                0x00000000080032f4                ADC_IRQHandler
                0x00000000080032f4                DMA1_Stream7_IRQHandler
                0x00000000080032f4                TIM7_IRQHandler
                0x00000000080032f4                CAN2_TX_IRQHandler
                0x00000000080032f4                TIM5_IRQHandler
                0x00000000080032f4                DMA2_Stream7_IRQHandler
                0x00000000080032f4                I2C3_EV_IRQHandler
                0x00000000080032f4                EXTI9_5_IRQHandler
                0x00000000080032f4                RTC_WKUP_IRQHandler
                0x00000000080032f4                SPI2_IRQHandler
                0x00000000080032f4                OTG_HS_EP1_IN_IRQHandler
                0x00000000080032f4                MemManage_Handler
                0x00000000080032f4                DMA1_Stream0_IRQHandler
                0x00000000080032f4                CAN1_TX_IRQHandler
                0x00000000080032f4                SVC_Handler
                0x00000000080032f4                EXTI4_IRQHandler
                0x00000000080032f4                OTG_HS_EP1_OUT_IRQHandler
                0x00000000080032f4                WWDG_IRQHandler
                0x00000000080032f4                TIM2_IRQHandler
                0x00000000080032f4                OTG_FS_WKUP_IRQHandler
                0x00000000080032f4                TIM1_TRG_COM_TIM11_IRQHandler
                0x00000000080032f4                OTG_HS_IRQHandler
                0x00000000080032f4                EXTI1_IRQHandler
                0x00000000080032f4                USART2_IRQHandler
                0x00000000080032f4                I2C2_ER_IRQHandler
                0x00000000080032f4                DMA2_Stream1_IRQHandler
                0x00000000080032f4                CAN1_SCE_IRQHandler
                0x00000000080032f4                FLASH_IRQHandler
                0x00000000080032f4                DMA2_Stream4_IRQHandler
                0x00000000080032f4                BusFault_Handler
                0x00000000080032f4                USART1_IRQHandler
                0x00000000080032f4                OTG_FS_IRQHandler
                0x00000000080032f4                SPI3_IRQHandler
                0x00000000080032f4                DMA1_Stream4_IRQHandler
                0x00000000080032f4                I2C1_ER_IRQHandler
                0x00000000080032f4                FMC_IRQHandler
                0x00000000080032f4                DMA2_Stream6_IRQHandler
                0x00000000080032f4                SAI1_IRQHandler
                0x00000000080032f4                DMA1_Stream3_IRQHandler
 *fill*         0x00000000080032f6        0x2 
 .text.__libc_init_array
                0x00000000080032f8       0x48 /home/bhavya/Downloads/1/plugins/fr.ac6.mcu.externaltools.arm-none.linux64_1.17.0.201812190825/tools/compiler/bin/../lib/gcc/arm-none-eabi/7.3.1/../../../../arm-none-eabi/lib/thumb/v7e-m/fpv4-sp/hard/libc.a(lib_a-init.o)
                0x00000000080032f8                __libc_init_array
 .text.memset   0x0000000008003340       0x94 /home/bhavya/Downloads/1/plugins/fr.ac6.mcu.externaltools.arm-none.linux64_1.17.0.201812190825/tools/compiler/bin/../lib/gcc/arm-none-eabi/7.3.1/../../../../arm-none-eabi/lib/thumb/v7e-m/fpv4-sp/hard/libc.a(lib_a-memset.o)
                0x0000000008003340                memset
 .text.startup.register_fini
                0x00000000080033d4       0x14 /home/bhavya/Downloads/1/plugins/fr.ac6.mcu.externaltools.arm-none.linux64_1.17.0.201812190825/tools/compiler/bin/../lib/gcc/arm-none-eabi/7.3.1/../../../../arm-none-eabi/lib/thumb/v7e-m/fpv4-sp/hard/libc.a(lib_a-__call_atexit.o)
 .text.atexit   0x00000000080033e8        0xc /home/bhavya/Downloads/1/plugins/fr.ac6.mcu.externaltools.arm-none.linux64_1.17.0.201812190825/tools/compiler/bin/../lib/gcc/arm-none-eabi/7.3.1/../../../../arm-none-eabi/lib/thumb/v7e-m/fpv4-sp/hard/libc.a(lib_a-atexit.o)
                0x00000000080033e8                atexit
 .text.__libc_fini_array
                0x00000000080033f4       0x34 /home/bhavya/Downloads/1/plugins/fr.ac6.mcu.externaltools.arm-none.linux64_1.17.0.201812190825/tools/compiler/bin/../lib/gcc/arm-none-eabi/7.3.1/../../../../arm-none-eabi/lib/thumb/v7e-m/fpv4-sp/hard/libc.a(lib_a-fini.o)
                0x00000000080033f4                __libc_fini_array
 .text.__retarget_lock_acquire_recursive
                0x0000000008003428        0x4 /home/bhavya/Downloads/1/plugins/fr.ac6.mcu.externaltools.arm-none.linux64_1.17.0.201812190825/tools/compiler/bin/../lib/gcc/arm-none-eabi/7.3.1/../../../../arm-none-eabi/lib/thumb/v7e-m/fpv4-sp/hard/libc.a(lib_a-lock.o)
                0x0000000008003428                __retarget_lock_acquire_recursive
 .text.__retarget_lock_release_recursive
                0x000000000800342c        0x4 /home/bhavya/Downloads/1/plugins/fr.ac6.mcu.externaltools.arm-none.linux64_1.17.0.201812190825/tools/compiler/bin/../lib/gcc/arm-none-eabi/7.3.1/../../../../arm-none-eabi/lib/thumb/v7e-m/fpv4-sp/hard/libc.a(lib_a-lock.o)
                0x000000000800342c                __retarget_lock_release_recursive
 .text.__register_exitproc
                0x0000000008003430       0xc0 /home/bhavya/Downloads/1/plugins/fr.ac6.mcu.externaltools.arm-none.linux64_1.17.0.201812190825/tools/compiler/bin/../lib/gcc/arm-none-eabi/7.3.1/../../../../arm-none-eabi/lib/thumb/v7e-m/fpv4-sp/hard/libc.a(lib_a-__atexit.o)
                0x0000000008003430                __register_exitproc
 *(.glue_7)
 .glue_7        0x00000000080034f0        0x0 linker stubs
 *(.glue_7t)
 .glue_7t       0x00000000080034f0        0x0 linker stubs
 *(.eh_frame)
 .eh_frame      0x00000000080034f0        0x0 /home/bhavya/Downloads/1/plugins/fr.ac6.mcu.externaltools.arm-none.linux64_1.17.0.201812190825/tools/compiler/bin/../lib/gcc/arm-none-eabi/7.3.1/thumb/v7e-m/fpv4-sp/hard/crtbegin.o
 *(.init)
 .init          0x00000000080034f0        0x4 /home/bhavya/Downloads/1/plugins/fr.ac6.mcu.externaltools.arm-none.linux64_1.17.0.201812190825/tools/compiler/bin/../lib/gcc/arm-none-eabi/7.3.1/thumb/v7e-m/fpv4-sp/hard/crti.o
                0x00000000080034f0                _init
 .init          0x00000000080034f4        0x8 /home/bhavya/Downloads/1/plugins/fr.ac6.mcu.externaltools.arm-none.linux64_1.17.0.201812190825/tools/compiler/bin/../lib/gcc/arm-none-eabi/7.3.1/thumb/v7e-m/fpv4-sp/hard/crtn.o
 *(.fini)
 .fini          0x00000000080034fc        0x4 /home/bhavya/Downloads/1/plugins/fr.ac6.mcu.externaltools.arm-none.linux64_1.17.0.201812190825/tools/compiler/bin/../lib/gcc/arm-none-eabi/7.3.1/thumb/v7e-m/fpv4-sp/hard/crti.o
                0x00000000080034fc                _fini
 .fini          0x0000000008003500        0x8 /home/bhavya/Downloads/1/plugins/fr.ac6.mcu.externaltools.arm-none.linux64_1.17.0.201812190825/tools/compiler/bin/../lib/gcc/arm-none-eabi/7.3.1/thumb/v7e-m/fpv4-sp/hard/crtn.o
                0x0000000008003508                . = ALIGN (0x4)
                0x0000000008003508                _etext = .

.vfp11_veneer   0x0000000008003508        0x0
 .vfp11_veneer  0x0000000008003508        0x0 linker stubs

.v4_bx          0x0000000008003508        0x0
 .v4_bx         0x0000000008003508        0x0 linker stubs

.iplt           0x0000000008003508        0x0
 .iplt          0x0000000008003508        0x0 /home/bhavya/Downloads/1/plugins/fr.ac6.mcu.externaltools.arm-none.linux64_1.17.0.201812190825/tools/compiler/bin/../lib/gcc/arm-none-eabi/7.3.1/thumb/v7e-m/fpv4-sp/hard/crtbegin.o

.rodata         0x0000000008003508     0x2ff4
                0x0000000008003508                . = ALIGN (0x4)
 *(.rodata)
 .rodata        0x0000000008003508      0x254 Ventilation/src/DATABASE/DB_EventMngt.o
                0x0000000008003508                BeginCommonEventParam
                0x000000000800350c                EndCommonEventParam
                0x0000000008003510                BeginSpecificEventParam
                0x0000000008003514                EndSpecificEventParam
                0x0000000008003518                EventDataSchemaVersion
                0x000000000800351c                DB_CommonEventMngtParam
                0x00000000080035dc                DB_PsvEventMngtParam
                0x000000000800361c                DB_PresEventMngtParam
                0x000000000800365c                DB_VolEventMngtParam
                0x000000000800369c                DB_VsimvEventMngtParam
                0x00000000080036dc                DB_PsimvEventMngtParam
                0x000000000800371c                DB_CpapEventMngtParam
 .rodata        0x000000000800375c     0x2ac4 Ventilation/src/DATABASE/DB_StartInitDb.o
                0x000000000800375c                cDB_VSIMV_TEST_ADJUST_DB
                0x0000000008003adc                cDB_PSIMV_TEST_ADJUST_DB
                0x0000000008003e5c                cDB_VOL_TEST_ADJUST_DB
                0x00000000080041dc                cDB_PSV_TEST_ADJUST_DB
                0x000000000800455c                cDB_CPAP_TEST_ADJUST_DB
                0x00000000080048dc                cDB_PRES_TEST_ADJUST_DB
                0x0000000008004c5c                cDB_TEST_CONFIG_DB
                0x00000000080052dc                cDB_TEST_RTC_DB
                0x00000000080053ac                cDB_TEST_USB_DB
                0x000000000800548c                cDB_TEST_VERSION_DB
                0x000000000800552c                cDB_TEST_TREND_DB
                0x00000000080057dc                cDB_Saturate_COMPUTE
                0x0000000008005e80                cDB_Saturate_POWERSUPPLY
                0x000000000800613c                cMODE_HIGH_LIMIT_VALUE
                0x0000000008006140                EventNumber
 .rodata        0x0000000008006220      0x1b9 Ventilation/src/MAIN/MAIN_Global_Variables_Init.o
                0x0000000008006220                SYS_InitTimerKey
                0x0000000008006250                PATIENT_PRESSURE_CALIB_POINTS
                0x0000000008006270                FLOW_CALIB_POINTS
                0x0000000008006290                VALVE_PRESSURE_CALIB_POINTS
                0x00000000080062b0                VALVE_FAS_PWM_CALIB_POINTS
                0x00000000080062bc                VALVE_FAS_PRESS_CALIB_POINTS
                0x00000000080062d8                FIO2_CALIB_POINTS
                0x00000000080062f8                FLOW_O2_CALIB_POINTS
                0x0000000008006318                O2_PRESSURE_CALIB_POINTS
                0x0000000008006338                CalibrationParameters
                0x00000000080063d8                cTIM_TimePeriodMs
 *fill*         0x00000000080063d9        0x3 
 .rodata        0x00000000080063dc       0x92 Ventilation/src/SCHEDULER/SCHED_Setup_entry.o
                0x00000000080063dc                Setup_Tasks_Table
                0x000000000800645c                Setup_Sched_table
                0x000000000800646c                Setup_Number_of_tasks
                0x000000000800646d                Setup_sched_step_number
 *fill*         0x000000000800646e        0x2 
 .rodata        0x0000000008006470       0x88 Ventilation/src/SYSTEM/INT_BlowerTemperatureInterpol.o
 *(.rodata*)
 .rodata._global_impure_ptr
                0x00000000080064f8        0x4 /home/bhavya/Downloads/1/plugins/fr.ac6.mcu.externaltools.arm-none.linux64_1.17.0.201812190825/tools/compiler/bin/../lib/gcc/arm-none-eabi/7.3.1/../../../../arm-none-eabi/lib/thumb/v7e-m/fpv4-sp/hard/libc.a(lib_a-impure.o)
                0x00000000080064f8                _global_impure_ptr
                0x00000000080064fc                . = ALIGN (0x4)

.rel.dyn        0x00000000080064fc        0x0
 .rel.iplt      0x00000000080064fc        0x0 /home/bhavya/Downloads/1/plugins/fr.ac6.mcu.externaltools.arm-none.linux64_1.17.0.201812190825/tools/compiler/bin/../lib/gcc/arm-none-eabi/7.3.1/thumb/v7e-m/fpv4-sp/hard/crtbegin.o

.ARM.extab      0x00000000080064fc        0x0
                0x00000000080064fc                . = ALIGN (0x4)
 *(.ARM.extab* .gnu.linkonce.armextab.*)
                0x00000000080064fc                . = ALIGN (0x4)

.ARM            0x00000000080064fc        0x0
                0x00000000080064fc                . = ALIGN (0x4)
                0x00000000080064fc                __exidx_start = .
 *(.ARM.exidx*)
                0x00000000080064fc                __exidx_end = .
                0x00000000080064fc                . = ALIGN (0x4)

.preinit_array  0x00000000080064fc        0x0
                0x00000000080064fc                . = ALIGN (0x4)
                0x00000000080064fc                PROVIDE (__preinit_array_start = .)
 *(.preinit_array*)
                0x00000000080064fc                PROVIDE (__preinit_array_end = .)
                0x00000000080064fc                . = ALIGN (0x4)

.init_array     0x00000000080064fc        0x8
                0x00000000080064fc                . = ALIGN (0x4)
                0x00000000080064fc                PROVIDE (__init_array_start = .)
 *(SORT_BY_NAME(.init_array.*))
 .init_array.00000
                0x00000000080064fc        0x4 /home/bhavya/Downloads/1/plugins/fr.ac6.mcu.externaltools.arm-none.linux64_1.17.0.201812190825/tools/compiler/bin/../lib/gcc/arm-none-eabi/7.3.1/../../../../arm-none-eabi/lib/thumb/v7e-m/fpv4-sp/hard/libc.a(lib_a-__call_atexit.o)
 *(.init_array*)
 .init_array    0x0000000008006500        0x4 /home/bhavya/Downloads/1/plugins/fr.ac6.mcu.externaltools.arm-none.linux64_1.17.0.201812190825/tools/compiler/bin/../lib/gcc/arm-none-eabi/7.3.1/thumb/v7e-m/fpv4-sp/hard/crtbegin.o
                0x0000000008006504                PROVIDE (__init_array_end = .)
                0x0000000008006504                . = ALIGN (0x4)

.fini_array     0x0000000008006504        0x4
                0x0000000008006504                . = ALIGN (0x4)
                0x0000000008006504                PROVIDE (__fini_array_start = .)
 *(SORT_BY_NAME(.fini_array.*))
 *(.fini_array*)
 .fini_array    0x0000000008006504        0x4 /home/bhavya/Downloads/1/plugins/fr.ac6.mcu.externaltools.arm-none.linux64_1.17.0.201812190825/tools/compiler/bin/../lib/gcc/arm-none-eabi/7.3.1/thumb/v7e-m/fpv4-sp/hard/crtbegin.o
                0x0000000008006508                PROVIDE (__fini_array_end = .)
                0x0000000008006508                . = ALIGN (0x4)
                0x0000000008006508                _sidata = LOADADDR (.data)

.data           0x0000000020000000      0x544 load address 0x0000000008006508
                0x0000000020000000                . = ALIGN (0x4)
                0x0000000020000000                _sdata = .
 *(.data)
 .data          0x0000000020000000      0x110 Ventilation/src/ACTUATOR/ACT_BlowerCmd.o
                0x0000000020000000                VEN_ControllerType
                0x0000000020000004                AdjustMode
                0x0000000020000008                VEN_TiTeValueMesured
                0x0000000020000010                VEN_MeasuredValues
                0x00000000200000b0                VEN_PeMin
                0x00000000200000b4                VEN_Vti
                0x00000000200000b8                VEN_Rise_Pi_Set_Point
                0x00000000200000bc                VEN_Qi_Set_Point
                0x00000000200000c0                VEN_PressureUpStep
                0x00000000200000c4                VEN_PressureDownStep
                0x00000000200000c8                VEN_PMax
                0x00000000200000cc                VEN_StartBip
                0x00000000200000d0                VEN_TemporaryMeasureQinspMin
                0x00000000200000d4                VEN_TemporaryMeasureQinspMax
                0x00000000200000d8                VEN_PreviousAverageFlow
                0x00000000200000dc                VEN_SIMV_PS_End
                0x000000002000010c                BLOWER_CMD_2
 .data          0x0000000020000110        0x4 Ventilation/src/ACTUATOR/ACT_BrakePower.o
                0x0000000020000110                BLOWER_CMD_1
 *(.data*)
 *fill*         0x0000000020000114        0x4 
 .data.impure_data
                0x0000000020000118      0x428 /home/bhavya/Downloads/1/plugins/fr.ac6.mcu.externaltools.arm-none.linux64_1.17.0.201812190825/tools/compiler/bin/../lib/gcc/arm-none-eabi/7.3.1/../../../../arm-none-eabi/lib/thumb/v7e-m/fpv4-sp/hard/libc.a(lib_a-impure.o)
 .data.__atexit_recursive_mutex
                0x0000000020000540        0x4 /home/bhavya/Downloads/1/plugins/fr.ac6.mcu.externaltools.arm-none.linux64_1.17.0.201812190825/tools/compiler/bin/../lib/gcc/arm-none-eabi/7.3.1/../../../../arm-none-eabi/lib/thumb/v7e-m/fpv4-sp/hard/libc.a(lib_a-__call_atexit.o)
                0x0000000020000540                __atexit_recursive_mutex
                0x0000000020000544                . = ALIGN (0x4)
                0x0000000020000544                _edata = .

.igot.plt       0x0000000020000544        0x0 load address 0x0000000008006a4c
 .igot.plt      0x0000000020000544        0x0 /home/bhavya/Downloads/1/plugins/fr.ac6.mcu.externaltools.arm-none.linux64_1.17.0.201812190825/tools/compiler/bin/../lib/gcc/arm-none-eabi/7.3.1/thumb/v7e-m/fpv4-sp/hard/crtbegin.o
                0x0000000020000544                . = ALIGN (0x4)

.bss            0x0000000020000548     0xe9a4 load address 0x0000000008006a4c
                0x0000000020000548                _sbss = .
                0x0000000020000548                __bss_start__ = _sbss
 *(.bss)
 .bss           0x0000000020000548       0x1c /home/bhavya/Downloads/1/plugins/fr.ac6.mcu.externaltools.arm-none.linux64_1.17.0.201812190825/tools/compiler/bin/../lib/gcc/arm-none-eabi/7.3.1/thumb/v7e-m/fpv4-sp/hard/crtbegin.o
 *fill*         0x0000000020000564        0x4 
 .bss           0x0000000020000568      0x100 Ventilation/src/ACTUATOR/ACT_BlowerCmd.o
                0x0000000020000568                VEN_CptCumulValveCurrent
                0x000000002000056c                VEN_IntegralBlower
                0x0000000020000570                VEN_IntegralValve
                0x0000000020000574                ChangeMode
                0x0000000020000578                VentilAuthorization
                0x000000002000057c                AdjustApnea
                0x0000000020000580                VEN_SIMVCycle
                0x0000000020000581                VEN_Controller_Phase
                0x0000000020000584                VEN_PerCentRisePI
                0x0000000020000588                VEN_PerCentRiseQI
                0x000000002000058c                VEN_CommandFlow
                0x0000000020000590                VEN_TargetFlow
                0x0000000020000594                VEN_ValveCurrentSat
                0x0000000020000598                VEN_FlowNegSat
                0x00000000200005a0                VEN_LeakFlowFactorAverage
                0x00000000200005a8                VEN_Qee_SampleSize
                0x00000000200005ac                VEN_FleakMeasured
                0x00000000200005b0                VEN_MemoFleakMeasured
                0x00000000200005b8                VEN_LeakVtiCorrection
                0x00000000200005c0                VEN_LeakVteCorrection
                0x00000000200005c8                VEN_ExhalFlowMaxMeasured
                0x00000000200005cc                VEN_TempRiseOpenValve
                0x00000000200005d0                VEN_TRiseIncrem
                0x00000000200005d4                VEN_TRiseDecrem
                0x00000000200005d8                VEN_MutexSignal1
                0x00000000200005dc                VEN_MutexSignal2
                0x00000000200005e0                VEN_MutexSignal3
                0x00000000200005e4                VEN_TRise_Rebond
                0x00000000200005e8                VEN_PepMeasured
                0x00000000200005ec                VEN_FirstCycle
                0x00000000200005f0                VEN_SecondCycle
                0x00000000200005f4                VEN_ThirdCycle
                0x00000000200005f8                VEN_UnvolontaryStop
                0x00000000200005fc                VEN_TeFall
                0x0000000020000600                VEN_SighDetected
                0x0000000020000604                VEN_AuthorizationRegulO2
                0x0000000020000608                VEN_LaunchCalibO2
                0x000000002000060c                VEN_IntegralValveO2
                0x0000000020000610                VEN_TrigExpDetected
                0x0000000020000614                VEN_InitValve
                0x0000000020000618                VEN_CpapFirstCycle
                0x000000002000061c                VEN_MeasureQinspMin
                0x0000000020000620                VEN_MeasureQinspMax
                0x0000000020000624                VEN_MutexReadjust
                0x0000000020000628                VEN_CumulVtiCpap
                0x000000002000062c                VEN_CumulFlowCounter
                0x0000000020000630                VEN_PreviousMeasureQinsp
                0x0000000020000634                VEN_PtrMesureFlowPress
                0x0000000020000638                VEN_PtrLeakFlowFactor
                0x000000002000063c                VEN_LeakFactorCptValues
                0x0000000020000640                VEN_Mutex_High_Pressure
                0x0000000020000644                VEN_MutexTimerReadjust
                0x0000000020000648                VEN_Disconnexion_Flag
                0x000000002000064c                VEN_VentilationStart
                0x0000000020000650                VEN_MutexVanneO2
                0x0000000020000654                VEN_Synchro_Reset_Alarms
                0x0000000020000658                VEN_CircuitDisconnectLowPressLimit
                0x000000002000065c                VEN_NegativeFlowCounter
                0x0000000020000660                VEN_DetectedNegativeFlow
                0x0000000020000664                VEN_IsVtiExhUpdated
 .bss           0x0000000020000668        0x4 Ventilation/src/ACTUATOR/ACT_BrakePower.o
                0x0000000020000668                BRAKE_BLOWER_2
 .bss           0x000000002000066c       0x3c Ventilation/src/DATABASE/DB_StartInitDb.o
                0x000000002000066c                MemoMode
                0x0000000020000670                DB_FirstStart
                0x0000000020000674                BadParameter
                0x0000000020000678                NewVersionDetected
                0x000000002000067c                BadVersion
                0x0000000020000680                LoosePara
                0x0000000020000684                DB_StartInitRequest
                0x0000000020000688                SEC_High_Priority_1
                0x000000002000068c                SEC_High_Priority_2
                0x0000000020000690                SEC_High_Priority_3
                0x0000000020000694                SEC_Medium_Priority_1
                0x0000000020000698                SEC_Medium_Priority_2
                0x000000002000069c                SEC_Medium_Priority_3
                0x00000000200006a0                SEC_Low_Priority
                0x00000000200006a4                SEC_SpeedTestEnded
 .bss           0x00000000200006a8       0xb0 Ventilation/src/MAIN/MAIN_Global_Variables_Init.o
                0x00000000200006a8                CONS_VIT
                0x00000000200006ac                DEF_TURB
                0x00000000200006b0                ENABLE_TURB
                0x00000000200006b4                BRAKE_BLOWER
                0x00000000200006b8                SPEED_BLOWER_PIN
                0x00000000200006bc                CD_VALVE
                0x00000000200006c0                CD_VANNE_FIO2
                0x00000000200006c4                ALIM_FAILURE_3_3V
                0x00000000200006c8                ALIM_FAILURE_5VREF
                0x00000000200006cc                ALIM_FAILURE_10VREF
                0x00000000200006d0                RESET_USB
                0x00000000200006d4                ALARM_REMOTE_STATE
                0x00000000200006d8                WDOG
                0x00000000200006dc                ARRET_INVOLONTAIRE
                0x00000000200006e0                CMD_ME1
                0x00000000200006e4                ALE_ME1
                0x00000000200006e8                BHE
                0x00000000200006ec                RF
                0x00000000200006f0                IRQ_UART
                0x00000000200006f4                TX_UART_ST
                0x00000000200006f8                RX_UART_ST
                0x00000000200006fc                MRST_SPI_ALIM
                0x0000000020000700                MTSR_SPI_ALIM
                0x0000000020000704                CLK_SPI_ALIM
                0x0000000020000708                MRST_SPI_CPU
                0x000000002000070c                MTSR_SPI_CPU
                0x0000000020000710                SCLK_SPI_CPU
                0x0000000020000714                JUMPER_JP8
                0x0000000020000718                JUMPER_JP7
                0x000000002000071c                SEC_BUZ
                0x0000000020000720                MASTERBUSY
                0x0000000020000724                INHIB_DETECTED
                0x0000000020000728                LED_ALARME_ROUGE
                0x000000002000072c                LED_ALARME_ORANGE
                0x0000000020000730                AC_SELECT
                0x0000000020000734                DC_SELECT
                0x0000000020000738                SYS_MutexStartStopVentilUP
                0x000000002000073c                SYS_MutexStopInfoVentil
                0x0000000020000740                SYS_WaitingForStopConfirm
                0x0000000020000744                SYS_CounterPatientMin
                0x0000000020000748                SYS_CounterPatientHour
                0x000000002000074c                SYS_CounterMachineMin
                0x0000000020000750                SYS_CounterMachineHour
                0x0000000020000754                SYS_CalibProcessing
 .bss           0x0000000020000758        0x4 Ventilation/src/MAIN/MAIN_Target_Init.o
                0x0000000020000758                RESET_USB_1
 .bss           0x000000002000075c        0x4 Ventilation/src/MAIN/MAIN_Ventilation_Init.o
                0x000000002000075c                BRAKE_BLOWER_1
 .bss           0x0000000020000760        0x2 Ventilation/src/SCHEDULER/SCHED_Setup_entry.o
                0x0000000020000760                Setup_CountActivateJob
                0x0000000020000761                Setup_CountActivateTaskStep
 *fill*         0x0000000020000762        0x2 
 .bss           0x0000000020000764      0x144 Ventilation/src/SYSTEM/INT_AbsPress_Interpol.o
 .bss           0x00000000200008a8       0x30 Ventilation/src/SYSTEM/INT_BlowerTemperatureInterpol.o
 .bss           0x00000000200008d8      0x144 Ventilation/src/SYSTEM/INT_ExhFlow_Interpol.o
 .bss           0x0000000020000a1c      0x170 Ventilation/src/SYSTEM/INT_InspFlow_Interpol.o
 .bss           0x0000000020000b8c      0x144 Ventilation/src/SYSTEM/INT_O2Flow_Interpol.o
 .bss           0x0000000020000cd0       0x2c Ventilation/src/SYSTEM/INT_O2Press_Interpol.o
 .bss           0x0000000020000cfc       0x14 Ventilation/src/SYSTEM/INT_PatPress_Interpol.o
 .bss           0x0000000020000d10       0x14 Ventilation/src/SYSTEM/INT_ProxiPress_Interpol.o
 .bss           0x0000000020000d24       0x34 Ventilation/src/SYSTEM/INT_SpeedBlow_Interpol.o
                0x0000000020000d24                SpeedBlowerDigit
                0x0000000020000d28                AvailableSpeedBlowerDigit
 .bss           0x0000000020000d58       0x2c Ventilation/src/SYSTEM/INT_ValvePress_Interpol.o
 .bss           0x0000000020000d84        0x4 Ventilation/src/SYSTEM/SYS_Interpolation.o
                0x0000000020000d84                DRV_Acquisition_Disponible
 .bss           0x0000000020000d88       0x20 src/MAIN.o
                0x0000000020000d88                CounterTemperature
                0x0000000020000d8c                spi_chip_access
                0x0000000020000d90                CounterTop1ms
                0x0000000020000d94                MAIN_Interfaces_Second_Init
                0x0000000020000d98                MAIN_End_of_init
                0x0000000020000d9c                MAIN_TopTimer5ms
                0x0000000020000da0                MAIN_CrcEepromTrouble
                0x0000000020000da4                INHIB_DETECTED_1
 *(.bss*)
 *(COMMON)
 COMMON         0x0000000020000da8      0x154 Ventilation/src/DATABASE/DB_ComputeWrite.o
                0x0000000020000da8                DB_Compute
 COMMON         0x0000000020000efc        0x4 Ventilation/src/DATABASE/DB_ConfigRead.o
                0x0000000020000efc                EEP_DB_Config
 COMMON         0x0000000020000f00      0x1b0 Ventilation/src/DATABASE/DB_ControlRead.o
                0x0000000020000f00                DB_Control
 COMMON         0x00000000200010b0       0xe0 Ventilation/src/DATABASE/DB_CurrentRead.o
                0x00000000200010b0                DB_Current
 COMMON         0x0000000020001190       0x34 Ventilation/src/DATABASE/DB_RTCWrite.o
                0x0000000020001190                DB_Rtc
 COMMON         0x00000000200011c4      0x3cc Ventilation/src/DATABASE/DB_StartInitDb.o
                0x00000000200011c4                DB_EepConfigDbError
                0x0000000020001364                DB_EepTrendDbError
                0x0000000020001410                DB_AlarmStatus
 COMMON         0x0000000020001590     0xd8e4 Ventilation/src/MAIN/MAIN_Global_Variables_Init.o
                0x0000000020001590                PECC7
                0x0000000020001594                T1REL
                0x0000000020001598                T2
                0x000000002000159c                DP8
                0x00000000200015a0                DP5
                0x00000000200015a4                SYS_Num_Keyboard
                0x0000000020001814                T7R
                0x0000000020001818                S0TBUF
                0x000000002000181c                XIR2SET
                0x0000000020001820                TIM_TableOfCntAndDecnt
                0x0000000020001e50                XSSCRB
                0x0000000020001e54                ADEIC
                0x0000000020001e58                PECC0
                0x0000000020001e5c                T4IE
                0x0000000020001e60                SRCP7
                0x0000000020001e64                SSCRIC
                0x0000000020001e68                XIR3SET
                0x0000000020001e6c                IEN
                0x0000000020001e70                nbre_de_debordement_timer
                0x0000000020001e74                XP1IE
                0x0000000020001e78                T4
                0x0000000020001e7c                S0TBIR
                0x0000000020001e80                T8REL
                0x0000000020001e84                DSTP7
                0x0000000020001e88                PW3
                0x0000000020001e8c                XP2IE
                0x0000000020001e90                SSCCON
                0x0000000020001e94                S0RIC
                0x0000000020001e98                XSSCTB
                0x0000000020001e9c                ODP4
                0x0000000020001ea0                P8
                0x0000000020001ea4                CCM2
                0x0000000020001ea8                temporisation_terminee
                0x0000000020001eac                T2R
                0x0000000020001eb0                XP2IC
                0x0000000020001eb4                ODP6
                0x0000000020001eb8                P6
                0x0000000020001ebc                T7REL
                0x0000000020001ec0                SSCTIC
                0x0000000020001ec4                CCM7
                0x0000000020001ec8                ADCIC
                0x0000000020001ecc                WDTCON
                0x0000000020001ed0                PWMCON0
                0x0000000020001ed4                S0TBIE
                0x0000000020001ed8                S0CON
                0x0000000020001edc                T6IC
                0x0000000020001ee0                T1IR
                0x0000000020001ee4                T5
                0x0000000020001ee8                P2
                0x0000000020001eec                T3IR
                0x0000000020001ef0                XIR2CLR
                0x0000000020001ef4                DataFrameUART1
                0x0000000020001ef8                DP4
                0x0000000020001efc                S0BG
                0x0000000020001f00                XSSCCONSET
                0x0000000020001f04                S0RBUF
                0x0000000020001f08                ADEIE
                0x0000000020001f0c                PUST_ERROR
                0x0000000020001f10                T2CON
                0x0000000020001f14                CC0IE
                0x0000000020001f18                SRCP6
                0x0000000020001f1c                XP3IC
                0x0000000020001f20                DIS_FifoDisplay
                0x000000002000ea40                T1IE
                0x000000002000ea44                DSTP6
                0x000000002000ea48                ADCON
                0x000000002000ea4c                T3
                0x000000002000ea50                TIM_MinuteTableOfCntAndDecnt
                0x000000002000ed48                T5IE
                0x000000002000ed4c                dernier_chargement_T2
                0x000000002000ed50                S0TBIC
                0x000000002000ed54                SSCBSY
                0x000000002000ed58                ODP3
                0x000000002000ed5c                CCM0
                0x000000002000ed60                PECC2
                0x000000002000ed64                CC10IR
                0x000000002000ed68                T7
                0x000000002000ed6c                P4
                0x000000002000ed70                CC10IE
                0x000000002000ed74                SSCBR
                0x000000002000ed78                T6CON
                0x000000002000ed7c                T01CON
                0x000000002000ed80                T3CON
                0x000000002000ed84                T8R
                0x000000002000ed88                XIR3CLR
                0x000000002000ed8c                T5CON
                0x000000002000ed90                ADCIR
                0x000000002000ed94                XP2IR
                0x000000002000ed98                DSTP0
                0x000000002000ed9c                XSSCCONCLR
                0x000000002000eda0                T1
                0x000000002000eda4                CC0IC
                0x000000002000eda8                XP1IC
                0x000000002000edac                XS1RBUF
                0x000000002000edb0                XIR1SET
                0x000000002000edb4                ADEIR
                0x000000002000edb8                T2IC
                0x000000002000edbc                P3
                0x000000002000edc0                cpt_de_debordement_timer
                0x000000002000edc4                DIS_FifoIdxWrite
                0x000000002000edc8                T78CON
                0x000000002000edcc                SRCP0
                0x000000002000edd0                XIR0SEL
                0x000000002000edd4                SSCTB
                0x000000002000edd8                XSSCBR
                0x000000002000eddc                DIS_FifoOverflow
                0x000000002000ede0                T1R
                0x000000002000ede4                T4IC
                0x000000002000ede8                DP3
                0x000000002000edec                CC0
                0x000000002000edf0                T1IC
                0x000000002000edf4                DP2
                0x000000002000edf8                DP7
                0x000000002000edfc                XP1IR
                0x000000002000ee00                T2IR
                0x000000002000ee04                T5IC
                0x000000002000ee08                T5R
                0x000000002000ee0c                SSCRB
                0x000000002000ee10                SRCP2
                0x000000002000ee14                PP3
                0x000000002000ee18                ADST
                0x000000002000ee1c                CAPREL
                0x000000002000ee20                CC10IC
                0x000000002000ee24                DSTP2
                0x000000002000ee28                XP0IC
                0x000000002000ee2c                ODP5
                0x000000002000ee30                ODP2
                0x000000002000ee34                T4R
                0x000000002000ee38                DP6
                0x000000002000ee3c                PECC6
                0x000000002000ee40                ODP7
                0x000000002000ee44                XS1PORT
                0x000000002000ee48                P7
                0x000000002000ee4c                DIS_FifoIdxRead
                0x000000002000ee50                T2IE
                0x000000002000ee54                CC0IR
                0x000000002000ee58                PWMCON1
                0x000000002000ee5c                P5
                0x000000002000ee60                CC28
                0x000000002000ee64                XIR1CLR
                0x000000002000ee68                T4CON
                0x000000002000ee6c                ODP8
                0x000000002000ee70                XSSCPORT
 COMMON         0x000000002000ee74        0x4 Ventilation/src/SCHEDULER/SCHED_Setup_entry.o
                0x000000002000ee74                Setup_ListOfActivateJob
 COMMON         0x000000002000ee78       0x40 Ventilation/src/SET_UP/SET_CalibrationManagement.o
                0x000000002000ee78                AD_Digit
 COMMON         0x000000002000eeb8        0xe Ventilation/src/VENTILATION/VEN_Cycles.o
                0x000000002000eeb8                CYC_ActiveModeState
                0x000000002000eec0                CYC_NextModeState
 *fill*         0x000000002000eec6        0x2 
 COMMON         0x000000002000eec8       0x21 /home/bhavya/Downloads/1/plugins/fr.ac6.mcu.externaltools.arm-none.linux64_1.17.0.201812190825/tools/compiler/bin/../lib/gcc/arm-none-eabi/7.3.1/../../../../arm-none-eabi/lib/thumb/v7e-m/fpv4-sp/hard/libc.a(lib_a-lock.o)
                0x000000002000eec8                __lock___atexit_recursive_mutex
                0x000000002000eecc                __lock___arc4random_mutex
                0x000000002000eed0                __lock___env_recursive_mutex
                0x000000002000eed4                __lock___sinit_recursive_mutex
                0x000000002000eed8                __lock___malloc_recursive_mutex
                0x000000002000eedc                __lock___at_quick_exit_mutex
                0x000000002000eee0                __lock___dd_hash_mutex
                0x000000002000eee4                __lock___tz_mutex
                0x000000002000eee8                __lock___sfp_recursive_mutex
                0x000000002000eeec                . = ALIGN (0x4)
 *fill*         0x000000002000eee9        0x3 
                0x000000002000eeec                _ebss = .
                0x000000002000eeec                __bss_end__ = _ebss

._user_heap_stack
                0x000000002000eeec      0x404 load address 0x0000000008006a4c
                0x000000002000eef0                . = ALIGN (0x8)
 *fill*         0x000000002000eeec        0x4 
                0x000000002000eef0                PROVIDE (end = .)
                [!provide]                        PROVIDE (_end = .)
                0x000000002000eef0                . = (. + _Min_Heap_Size)
                0x000000002000f2f0                . = (. + _Min_Stack_Size)
 *fill*         0x000000002000eef0      0x400 
                0x000000002000f2f0                . = ALIGN (0x8)

/DISCARD/
 libc.a(*)
 libm.a(*)
 libgcc.a(*)

.ARM.attributes
                0x0000000000000000       0x30
 *(.ARM.attributes)
 .ARM.attributes
                0x0000000000000000       0x22 /home/bhavya/Downloads/1/plugins/fr.ac6.mcu.externaltools.arm-none.linux64_1.17.0.201812190825/tools/compiler/bin/../lib/gcc/arm-none-eabi/7.3.1/thumb/v7e-m/fpv4-sp/hard/crti.o
 .ARM.attributes
                0x0000000000000022       0x34 /home/bhavya/Downloads/1/plugins/fr.ac6.mcu.externaltools.arm-none.linux64_1.17.0.201812190825/tools/compiler/bin/../lib/gcc/arm-none-eabi/7.3.1/thumb/v7e-m/fpv4-sp/hard/crtbegin.o
 .ARM.attributes
                0x0000000000000056       0x39 Ventilation/src/ACTUATOR/ACT_BlowerCmd.o
 .ARM.attributes
                0x000000000000008f       0x39 Ventilation/src/ACTUATOR/ACT_BrakePower.o
 .ARM.attributes
                0x00000000000000c8       0x39 Ventilation/src/DATABASE/DB_AlarmInfoWrite.o
 .ARM.attributes
                0x0000000000000101       0x39 Ventilation/src/DATABASE/DB_AlarmStatusWrite.o
 .ARM.attributes
                0x000000000000013a       0x39 Ventilation/src/DATABASE/DB_ComputeRead.o
 .ARM.attributes
                0x0000000000000173       0x39 Ventilation/src/DATABASE/DB_ComputeWrite.o
 .ARM.attributes
                0x00000000000001ac       0x39 Ventilation/src/DATABASE/DB_ConfigRead.o
 .ARM.attributes
                0x00000000000001e5       0x39 Ventilation/src/DATABASE/DB_ControlRead.o
 .ARM.attributes
                0x000000000000021e       0x39 Ventilation/src/DATABASE/DB_ControlWrite.o
 .ARM.attributes
                0x0000000000000257       0x39 Ventilation/src/DATABASE/DB_CurrentRead.o
 .ARM.attributes
                0x0000000000000290       0x39 Ventilation/src/DATABASE/DB_EventMngt.o
 .ARM.attributes
                0x00000000000002c9       0x39 Ventilation/src/DATABASE/DB_MeasurementWrite.o
 .ARM.attributes
                0x0000000000000302       0x39 Ventilation/src/DATABASE/DB_RTCRead.o
 .ARM.attributes
                0x000000000000033b       0x39 Ventilation/src/DATABASE/DB_RTCWrite.o
 .ARM.attributes
                0x0000000000000374       0x39 Ventilation/src/DATABASE/DB_StartInitDb.o
 .ARM.attributes
                0x00000000000003ad       0x39 Ventilation/src/DATABASE/DB_TrendWrite.o
 .ARM.attributes
                0x00000000000003e6       0x39 Ventilation/src/DISPLAY/DIS_FifoRead.o
 .ARM.attributes
                0x000000000000041f       0x39 Ventilation/src/GENERAL/Saturation.o
 .ARM.attributes
                0x0000000000000458       0x39 Ventilation/src/INTERRUPTS/It_watchdog.o
 .ARM.attributes
                0x0000000000000491       0x39 Ventilation/src/MAIN/MAIN_Global_Variables_Init.o
 .ARM.attributes
                0x00000000000004ca       0x39 Ventilation/src/MAIN/MAIN_Interfaces_Init.o
 .ARM.attributes
                0x0000000000000503       0x39 Ventilation/src/MAIN/MAIN_Security_Init.o
 .ARM.attributes
                0x000000000000053c       0x39 Ventilation/src/MAIN/MAIN_System_Init.o
 .ARM.attributes
                0x0000000000000575       0x39 Ventilation/src/MAIN/MAIN_Target_Init.o
 .ARM.attributes
                0x00000000000005ae       0x39 Ventilation/src/MAIN/MAIN_Tasks_Init.o
 .ARM.attributes
                0x00000000000005e7       0x39 Ventilation/src/MAIN/MAIN_Ventilation_Init.o
 .ARM.attributes
                0x0000000000000620       0x39 Ventilation/src/SCHEDULER/SCHED_Setup_Main.o
 .ARM.attributes
                0x0000000000000659       0x39 Ventilation/src/SCHEDULER/SCHED_Setup_entry.o
 .ARM.attributes
                0x0000000000000692       0x39 Ventilation/src/SCHEDULER/SCHED_Ventilation_Main.o
 .ARM.attributes
                0x00000000000006cb       0x39 Ventilation/src/SET_UP/SET_Actuator.o
 .ARM.attributes
                0x0000000000000704       0x39 Ventilation/src/SET_UP/SET_CalibrationManagement.o
 .ARM.attributes
                0x000000000000073d       0x39 Ventilation/src/SET_UP/SET_RTC_Mngt.o
 .ARM.attributes
                0x0000000000000776       0x39 Ventilation/src/SET_UP/SET_TechnicalAlarms.o
 .ARM.attributes
                0x00000000000007af       0x39 Ventilation/src/SYSTEM/INT_AbsPress_Interpol.o
 .ARM.attributes
                0x00000000000007e8       0x39 Ventilation/src/SYSTEM/INT_BlowerTemperatureInterpol.o
 .ARM.attributes
                0x0000000000000821       0x39 Ventilation/src/SYSTEM/INT_ExhFlow_Interpol.o
 .ARM.attributes
                0x000000000000085a       0x39 Ventilation/src/SYSTEM/INT_Fio2_Interpol.o
 .ARM.attributes
                0x0000000000000893       0x39 Ventilation/src/SYSTEM/INT_Flow_Conversion_Equation.o
 .ARM.attributes
                0x00000000000008cc       0x39 Ventilation/src/SYSTEM/INT_InspFlow_Interpol.o
 .ARM.attributes
                0x0000000000000905       0x39 Ventilation/src/SYSTEM/INT_O2Flow_Interpol.o
 .ARM.attributes
                0x000000000000093e       0x39 Ventilation/src/SYSTEM/INT_O2Press_Interpol.o
 .ARM.attributes
                0x0000000000000977       0x39 Ventilation/src/SYSTEM/INT_PatPress_Interpol.o
 .ARM.attributes
                0x00000000000009b0       0x39 Ventilation/src/SYSTEM/INT_ProxiPress_Interpol.o
 .ARM.attributes
                0x00000000000009e9       0x39 Ventilation/src/SYSTEM/INT_SpeedBlow_Interpol.o
 .ARM.attributes
                0x0000000000000a22       0x39 Ventilation/src/SYSTEM/INT_ValvePress_Interpol.o
 .ARM.attributes
                0x0000000000000a5b       0x39 Ventilation/src/SYSTEM/INT_Voltages_Interpol.o
 .ARM.attributes
                0x0000000000000a94       0x39 Ventilation/src/SYSTEM/SYS_Backlight_Mngt.o
 .ARM.attributes
                0x0000000000000acd       0x39 Ventilation/src/SYSTEM/SYS_CurveFlowCalcul.o
 .ARM.attributes
                0x0000000000000b06       0x39 Ventilation/src/SYSTEM/SYS_Fio2Detection.o
 .ARM.attributes
                0x0000000000000b3f       0x39 Ventilation/src/SYSTEM/SYS_Interpolation.o
 .ARM.attributes
                0x0000000000000b78       0x39 Ventilation/src/SYSTEM/SYS_Keyboard.o
 .ARM.attributes
                0x0000000000000bb1       0x39 Ventilation/src/SYSTEM/SYS_SetupLaunch.o
 .ARM.attributes
                0x0000000000000bea       0x39 Ventilation/src/SYSTEM/SYS_SupplyDetect.o
 .ARM.attributes
                0x0000000000000c23       0x39 Ventilation/src/TIMERS/TIM_Launch.o
 .ARM.attributes
                0x0000000000000c5c       0x39 Ventilation/src/TIMERS/TIM_ReadCounterValue.o
 .ARM.attributes
                0x0000000000000c95       0x39 Ventilation/src/TIMERS/TIM_ReadDecounterValue.o
 .ARM.attributes
                0x0000000000000cce       0x39 Ventilation/src/TIMERS/TIM_StartDecounter.o
 .ARM.attributes
                0x0000000000000d07       0x39 Ventilation/src/TIMERS/TIM_Temporize.o
 .ARM.attributes
                0x0000000000000d40       0x39 Ventilation/src/VENTILATION/VEN_Cycles.o
 .ARM.attributes
                0x0000000000000d79       0x39 Ventilation/src/VENTILATION/VEN_RiseCompute.o
 .ARM.attributes
                0x0000000000000db2       0x39 src/MAIN.o
 .ARM.attributes
                0x0000000000000deb       0x21 startup/startup_stm32.o
 .ARM.attributes
                0x0000000000000e0c       0x34 /home/bhavya/Downloads/1/plugins/fr.ac6.mcu.externaltools.arm-none.linux64_1.17.0.201812190825/tools/compiler/bin/../lib/gcc/arm-none-eabi/7.3.1/../../../../arm-none-eabi/lib/thumb/v7e-m/fpv4-sp/hard/libc.a(lib_a-impure.o)
 .ARM.attributes
                0x0000000000000e40       0x34 /home/bhavya/Downloads/1/plugins/fr.ac6.mcu.externaltools.arm-none.linux64_1.17.0.201812190825/tools/compiler/bin/../lib/gcc/arm-none-eabi/7.3.1/../../../../arm-none-eabi/lib/thumb/v7e-m/fpv4-sp/hard/libc.a(lib_a-init.o)
 .ARM.attributes
                0x0000000000000e74       0x20 /home/bhavya/Downloads/1/plugins/fr.ac6.mcu.externaltools.arm-none.linux64_1.17.0.201812190825/tools/compiler/bin/../lib/gcc/arm-none-eabi/7.3.1/../../../../arm-none-eabi/lib/thumb/v7e-m/fpv4-sp/hard/libc.a(lib_a-memcpy.o)
 .ARM.attributes
                0x0000000000000e94       0x34 /home/bhavya/Downloads/1/plugins/fr.ac6.mcu.externaltools.arm-none.linux64_1.17.0.201812190825/tools/compiler/bin/../lib/gcc/arm-none-eabi/7.3.1/../../../../arm-none-eabi/lib/thumb/v7e-m/fpv4-sp/hard/libc.a(lib_a-memset.o)
 .ARM.attributes
                0x0000000000000ec8       0x34 /home/bhavya/Downloads/1/plugins/fr.ac6.mcu.externaltools.arm-none.linux64_1.17.0.201812190825/tools/compiler/bin/../lib/gcc/arm-none-eabi/7.3.1/../../../../arm-none-eabi/lib/thumb/v7e-m/fpv4-sp/hard/libc.a(lib_a-__call_atexit.o)
 .ARM.attributes
                0x0000000000000efc       0x34 /home/bhavya/Downloads/1/plugins/fr.ac6.mcu.externaltools.arm-none.linux64_1.17.0.201812190825/tools/compiler/bin/../lib/gcc/arm-none-eabi/7.3.1/../../../../arm-none-eabi/lib/thumb/v7e-m/fpv4-sp/hard/libc.a(lib_a-atexit.o)
 .ARM.attributes
                0x0000000000000f30       0x34 /home/bhavya/Downloads/1/plugins/fr.ac6.mcu.externaltools.arm-none.linux64_1.17.0.201812190825/tools/compiler/bin/../lib/gcc/arm-none-eabi/7.3.1/../../../../arm-none-eabi/lib/thumb/v7e-m/fpv4-sp/hard/libc.a(lib_a-fini.o)
 .ARM.attributes
                0x0000000000000f64       0x34 /home/bhavya/Downloads/1/plugins/fr.ac6.mcu.externaltools.arm-none.linux64_1.17.0.201812190825/tools/compiler/bin/../lib/gcc/arm-none-eabi/7.3.1/../../../../arm-none-eabi/lib/thumb/v7e-m/fpv4-sp/hard/libc.a(lib_a-lock.o)
 .ARM.attributes
                0x0000000000000f98       0x34 /home/bhavya/Downloads/1/plugins/fr.ac6.mcu.externaltools.arm-none.linux64_1.17.0.201812190825/tools/compiler/bin/../lib/gcc/arm-none-eabi/7.3.1/../../../../arm-none-eabi/lib/thumb/v7e-m/fpv4-sp/hard/libc.a(lib_a-__atexit.o)
 .ARM.attributes
                0x0000000000000fcc       0x22 /home/bhavya/Downloads/1/plugins/fr.ac6.mcu.externaltools.arm-none.linux64_1.17.0.201812190825/tools/compiler/bin/../lib/gcc/arm-none-eabi/7.3.1/thumb/v7e-m/fpv4-sp/hard/crtn.o
OUTPUT(Ventilation_Maintest.elf elf32-littlearm)

.debug_info     0x0000000000000000    0x1d6c5
 .debug_info    0x0000000000000000     0x132a Ventilation/src/ACTUATOR/ACT_BlowerCmd.o
 .debug_info    0x000000000000132a       0xa8 Ventilation/src/ACTUATOR/ACT_BrakePower.o
 .debug_info    0x00000000000013d2      0x332 Ventilation/src/DATABASE/DB_AlarmInfoWrite.o
 .debug_info    0x0000000000001704      0x358 Ventilation/src/DATABASE/DB_AlarmStatusWrite.o
 .debug_info    0x0000000000001a5c      0x2c1 Ventilation/src/DATABASE/DB_ComputeRead.o
 .debug_info    0x0000000000001d1d      0x53b Ventilation/src/DATABASE/DB_ComputeWrite.o
 .debug_info    0x0000000000002258      0x34f Ventilation/src/DATABASE/DB_ConfigRead.o
 .debug_info    0x00000000000025a7      0x369 Ventilation/src/DATABASE/DB_ControlRead.o
 .debug_info    0x0000000000002910      0x638 Ventilation/src/DATABASE/DB_ControlWrite.o
 .debug_info    0x0000000000002f48      0x219 Ventilation/src/DATABASE/DB_CurrentRead.o
 .debug_info    0x0000000000003161     0x1096 Ventilation/src/DATABASE/DB_EventMngt.o
 .debug_info    0x00000000000041f7      0x103 Ventilation/src/DATABASE/DB_MeasurementWrite.o
 .debug_info    0x00000000000042fa      0x111 Ventilation/src/DATABASE/DB_RTCRead.o
 .debug_info    0x000000000000440b      0x693 Ventilation/src/DATABASE/DB_RTCWrite.o
 .debug_info    0x0000000000004a9e     0x1aac Ventilation/src/DATABASE/DB_StartInitDb.o
 .debug_info    0x000000000000654a      0x759 Ventilation/src/DATABASE/DB_TrendWrite.o
 .debug_info    0x0000000000006ca3      0x1ee Ventilation/src/DISPLAY/DIS_FifoRead.o
 .debug_info    0x0000000000006e91       0xb4 Ventilation/src/GENERAL/Saturation.o
 .debug_info    0x0000000000006f45       0x62 Ventilation/src/INTERRUPTS/It_watchdog.o
 .debug_info    0x0000000000006fa7     0x2288 Ventilation/src/MAIN/MAIN_Global_Variables_Init.o
 .debug_info    0x000000000000922f      0xeed Ventilation/src/MAIN/MAIN_Interfaces_Init.o
 .debug_info    0x000000000000a11c      0xda5 Ventilation/src/MAIN/MAIN_Security_Init.o
 .debug_info    0x000000000000aec1      0xa3b Ventilation/src/MAIN/MAIN_System_Init.o
 .debug_info    0x000000000000b8fc      0xa26 Ventilation/src/MAIN/MAIN_Target_Init.o
 .debug_info    0x000000000000c322       0x3b Ventilation/src/MAIN/MAIN_Tasks_Init.o
 .debug_info    0x000000000000c35d     0x11a6 Ventilation/src/MAIN/MAIN_Ventilation_Init.o
 .debug_info    0x000000000000d503       0xfc Ventilation/src/SCHEDULER/SCHED_Setup_Main.o
 .debug_info    0x000000000000d5ff      0x245 Ventilation/src/SCHEDULER/SCHED_Setup_entry.o
 .debug_info    0x000000000000d844       0xfc Ventilation/src/SCHEDULER/SCHED_Ventilation_Main.o
 .debug_info    0x000000000000d940      0x963 Ventilation/src/SET_UP/SET_Actuator.o
 .debug_info    0x000000000000e2a3      0xf1b Ventilation/src/SET_UP/SET_CalibrationManagement.o
 .debug_info    0x000000000000f1be       0x92 Ventilation/src/SET_UP/SET_RTC_Mngt.o
 .debug_info    0x000000000000f250       0x6c Ventilation/src/SET_UP/SET_TechnicalAlarms.o
 .debug_info    0x000000000000f2bc      0x489 Ventilation/src/SYSTEM/INT_AbsPress_Interpol.o
 .debug_info    0x000000000000f745      0x45a Ventilation/src/SYSTEM/INT_BlowerTemperatureInterpol.o
 .debug_info    0x000000000000fb9f      0xe9e Ventilation/src/SYSTEM/INT_ExhFlow_Interpol.o
 .debug_info    0x0000000000010a3d      0xacb Ventilation/src/SYSTEM/INT_Fio2_Interpol.o
 .debug_info    0x0000000000011508      0x13a Ventilation/src/SYSTEM/INT_Flow_Conversion_Equation.o
 .debug_info    0x0000000000011642      0xeec Ventilation/src/SYSTEM/INT_InspFlow_Interpol.o
 .debug_info    0x000000000001252e      0xe05 Ventilation/src/SYSTEM/INT_O2Flow_Interpol.o
 .debug_info    0x0000000000013333      0xad1 Ventilation/src/SYSTEM/INT_O2Press_Interpol.o
 .debug_info    0x0000000000013e04      0xaed Ventilation/src/SYSTEM/INT_PatPress_Interpol.o
 .debug_info    0x00000000000148f1      0xadf Ventilation/src/SYSTEM/INT_ProxiPress_Interpol.o
 .debug_info    0x00000000000153d0      0x878 Ventilation/src/SYSTEM/INT_SpeedBlow_Interpol.o
 .debug_info    0x0000000000015c48      0x741 Ventilation/src/SYSTEM/INT_ValvePress_Interpol.o
 .debug_info    0x0000000000016389      0xae4 Ventilation/src/SYSTEM/INT_Voltages_Interpol.o
 .debug_info    0x0000000000016e6d      0x4ad Ventilation/src/SYSTEM/SYS_Backlight_Mngt.o
 .debug_info    0x000000000001731a      0x95f Ventilation/src/SYSTEM/SYS_CurveFlowCalcul.o
 .debug_info    0x0000000000017c79      0x801 Ventilation/src/SYSTEM/SYS_Fio2Detection.o
 .debug_info    0x000000000001847a      0x35c Ventilation/src/SYSTEM/SYS_Interpolation.o
 .debug_info    0x00000000000187d6      0x4ad Ventilation/src/SYSTEM/SYS_Keyboard.o
 .debug_info    0x0000000000018c83       0x3b Ventilation/src/SYSTEM/SYS_SetupLaunch.o
 .debug_info    0x0000000000018cbe       0xad Ventilation/src/SYSTEM/SYS_SupplyDetect.o
 .debug_info    0x0000000000018d6b      0x5e0 Ventilation/src/TIMERS/TIM_Launch.o
 .debug_info    0x000000000001934b      0x4de Ventilation/src/TIMERS/TIM_ReadCounterValue.o
 .debug_info    0x0000000000019829      0x4de Ventilation/src/TIMERS/TIM_ReadDecounterValue.o
 .debug_info    0x0000000000019d07      0x503 Ventilation/src/TIMERS/TIM_StartDecounter.o
 .debug_info    0x000000000001a20a      0xa5f Ventilation/src/TIMERS/TIM_Temporize.o
 .debug_info    0x000000000001ac69     0x12ce Ventilation/src/VENTILATION/VEN_Cycles.o
 .debug_info    0x000000000001bf37       0xbc Ventilation/src/VENTILATION/VEN_RiseCompute.o
 .debug_info    0x000000000001bff3     0x16b0 src/MAIN.o
 .debug_info    0x000000000001d6a3       0x22 startup/startup_stm32.o

.debug_abbrev   0x0000000000000000     0x3464
 .debug_abbrev  0x0000000000000000      0x108 Ventilation/src/ACTUATOR/ACT_BlowerCmd.o
 .debug_abbrev  0x0000000000000108       0x72 Ventilation/src/ACTUATOR/ACT_BrakePower.o
 .debug_abbrev  0x000000000000017a       0xbc Ventilation/src/DATABASE/DB_AlarmInfoWrite.o
 .debug_abbrev  0x0000000000000236       0xcb Ventilation/src/DATABASE/DB_AlarmStatusWrite.o
 .debug_abbrev  0x0000000000000301       0xa0 Ventilation/src/DATABASE/DB_ComputeRead.o
 .debug_abbrev  0x00000000000003a1      0x11e Ventilation/src/DATABASE/DB_ComputeWrite.o
 .debug_abbrev  0x00000000000004bf       0xb6 Ventilation/src/DATABASE/DB_ConfigRead.o
 .debug_abbrev  0x0000000000000575       0xa0 Ventilation/src/DATABASE/DB_ControlRead.o
 .debug_abbrev  0x0000000000000615      0x10d Ventilation/src/DATABASE/DB_ControlWrite.o
 .debug_abbrev  0x0000000000000722       0xa0 Ventilation/src/DATABASE/DB_CurrentRead.o
 .debug_abbrev  0x00000000000007c2      0x15c Ventilation/src/DATABASE/DB_EventMngt.o
 .debug_abbrev  0x000000000000091e       0xad Ventilation/src/DATABASE/DB_MeasurementWrite.o
 .debug_abbrev  0x00000000000009cb       0xa0 Ventilation/src/DATABASE/DB_RTCRead.o
 .debug_abbrev  0x0000000000000a6b      0x11e Ventilation/src/DATABASE/DB_RTCWrite.o
 .debug_abbrev  0x0000000000000b89       0xfb Ventilation/src/DATABASE/DB_StartInitDb.o
 .debug_abbrev  0x0000000000000c84      0x12f Ventilation/src/DATABASE/DB_TrendWrite.o
 .debug_abbrev  0x0000000000000db3       0xb4 Ventilation/src/DISPLAY/DIS_FifoRead.o
 .debug_abbrev  0x0000000000000e67       0x81 Ventilation/src/GENERAL/Saturation.o
 .debug_abbrev  0x0000000000000ee8       0x61 Ventilation/src/INTERRUPTS/It_watchdog.o
 .debug_abbrev  0x0000000000000f49      0x12b Ventilation/src/MAIN/MAIN_Global_Variables_Init.o
 .debug_abbrev  0x0000000000001074      0x15c Ventilation/src/MAIN/MAIN_Interfaces_Init.o
 .debug_abbrev  0x00000000000011d0       0xfe Ventilation/src/MAIN/MAIN_Security_Init.o
 .debug_abbrev  0x00000000000012ce      0x10f Ventilation/src/MAIN/MAIN_System_Init.o
 .debug_abbrev  0x00000000000013dd      0x103 Ventilation/src/MAIN/MAIN_Target_Init.o
 .debug_abbrev  0x00000000000014e0       0x2f Ventilation/src/MAIN/MAIN_Tasks_Init.o
 .debug_abbrev  0x000000000000150f      0x12b Ventilation/src/MAIN/MAIN_Ventilation_Init.o
 .debug_abbrev  0x000000000000163a       0x8a Ventilation/src/SCHEDULER/SCHED_Setup_Main.o
 .debug_abbrev  0x00000000000016c4      0x11f Ventilation/src/SCHEDULER/SCHED_Setup_entry.o
 .debug_abbrev  0x00000000000017e3       0x8a Ventilation/src/SCHEDULER/SCHED_Ventilation_Main.o
 .debug_abbrev  0x000000000000186d       0xe0 Ventilation/src/SET_UP/SET_Actuator.o
 .debug_abbrev  0x000000000000194d      0x111 Ventilation/src/SET_UP/SET_CalibrationManagement.o
 .debug_abbrev  0x0000000000001a5e       0x75 Ventilation/src/SET_UP/SET_RTC_Mngt.o
 .debug_abbrev  0x0000000000001ad3       0x45 Ventilation/src/SET_UP/SET_TechnicalAlarms.o
 .debug_abbrev  0x0000000000001b18       0xf2 Ventilation/src/SYSTEM/INT_AbsPress_Interpol.o
 .debug_abbrev  0x0000000000001c0a       0xf2 Ventilation/src/SYSTEM/INT_BlowerTemperatureInterpol.o
 .debug_abbrev  0x0000000000001cfc      0x138 Ventilation/src/SYSTEM/INT_ExhFlow_Interpol.o
 .debug_abbrev  0x0000000000001e34      0x120 Ventilation/src/SYSTEM/INT_Fio2_Interpol.o
 .debug_abbrev  0x0000000000001f54       0x72 Ventilation/src/SYSTEM/INT_Flow_Conversion_Equation.o
 .debug_abbrev  0x0000000000001fc6      0x138 Ventilation/src/SYSTEM/INT_InspFlow_Interpol.o
 .debug_abbrev  0x00000000000020fe      0x138 Ventilation/src/SYSTEM/INT_O2Flow_Interpol.o
 .debug_abbrev  0x0000000000002236      0x138 Ventilation/src/SYSTEM/INT_O2Press_Interpol.o
 .debug_abbrev  0x000000000000236e      0x138 Ventilation/src/SYSTEM/INT_PatPress_Interpol.o
 .debug_abbrev  0x00000000000024a6      0x138 Ventilation/src/SYSTEM/INT_ProxiPress_Interpol.o
 .debug_abbrev  0x00000000000025de      0x116 Ventilation/src/SYSTEM/INT_SpeedBlow_Interpol.o
 .debug_abbrev  0x00000000000026f4       0xf2 Ventilation/src/SYSTEM/INT_ValvePress_Interpol.o
 .debug_abbrev  0x00000000000027e6       0xfe Ventilation/src/SYSTEM/INT_Voltages_Interpol.o
 .debug_abbrev  0x00000000000028e4       0xe5 Ventilation/src/SYSTEM/SYS_Backlight_Mngt.o
 .debug_abbrev  0x00000000000029c9       0xaf Ventilation/src/SYSTEM/SYS_CurveFlowCalcul.o
 .debug_abbrev  0x0000000000002a78       0xde Ventilation/src/SYSTEM/SYS_Fio2Detection.o
 .debug_abbrev  0x0000000000002b56       0xa7 Ventilation/src/SYSTEM/SYS_Interpolation.o
 .debug_abbrev  0x0000000000002bfd       0xe5 Ventilation/src/SYSTEM/SYS_Keyboard.o
 .debug_abbrev  0x0000000000002ce2       0x2f Ventilation/src/SYSTEM/SYS_SetupLaunch.o
 .debug_abbrev  0x0000000000002d11       0x75 Ventilation/src/SYSTEM/SYS_SupplyDetect.o
 .debug_abbrev  0x0000000000002d86       0xc4 Ventilation/src/TIMERS/TIM_Launch.o
 .debug_abbrev  0x0000000000002e4a       0xd3 Ventilation/src/TIMERS/TIM_ReadCounterValue.o
 .debug_abbrev  0x0000000000002f1d       0xd3 Ventilation/src/TIMERS/TIM_ReadDecounterValue.o
 .debug_abbrev  0x0000000000002ff0       0xd1 Ventilation/src/TIMERS/TIM_StartDecounter.o
 .debug_abbrev  0x00000000000030c1       0xdd Ventilation/src/TIMERS/TIM_Temporize.o
 .debug_abbrev  0x000000000000319e      0x10d Ventilation/src/VENTILATION/VEN_Cycles.o
 .debug_abbrev  0x00000000000032ab       0x63 Ventilation/src/VENTILATION/VEN_RiseCompute.o
 .debug_abbrev  0x000000000000330e      0x144 src/MAIN.o
 .debug_abbrev  0x0000000000003452       0x12 startup/startup_stm32.o

.debug_aranges  0x0000000000000000      0x838
 .debug_aranges
                0x0000000000000000       0x20 Ventilation/src/ACTUATOR/ACT_BlowerCmd.o
 .debug_aranges
                0x0000000000000020       0x20 Ventilation/src/ACTUATOR/ACT_BrakePower.o
 .debug_aranges
                0x0000000000000040       0x20 Ventilation/src/DATABASE/DB_AlarmInfoWrite.o
 .debug_aranges
                0x0000000000000060       0x20 Ventilation/src/DATABASE/DB_AlarmStatusWrite.o
 .debug_aranges
                0x0000000000000080       0x20 Ventilation/src/DATABASE/DB_ComputeRead.o
 .debug_aranges
                0x00000000000000a0       0x20 Ventilation/src/DATABASE/DB_ComputeWrite.o
 .debug_aranges
                0x00000000000000c0       0x20 Ventilation/src/DATABASE/DB_ConfigRead.o
 .debug_aranges
                0x00000000000000e0       0x20 Ventilation/src/DATABASE/DB_ControlRead.o
 .debug_aranges
                0x0000000000000100       0x20 Ventilation/src/DATABASE/DB_ControlWrite.o
 .debug_aranges
                0x0000000000000120       0x20 Ventilation/src/DATABASE/DB_CurrentRead.o
 .debug_aranges
                0x0000000000000140       0x28 Ventilation/src/DATABASE/DB_EventMngt.o
 .debug_aranges
                0x0000000000000168       0x20 Ventilation/src/DATABASE/DB_MeasurementWrite.o
 .debug_aranges
                0x0000000000000188       0x20 Ventilation/src/DATABASE/DB_RTCRead.o
 .debug_aranges
                0x00000000000001a8       0x20 Ventilation/src/DATABASE/DB_RTCWrite.o
 .debug_aranges
                0x00000000000001c8       0x20 Ventilation/src/DATABASE/DB_StartInitDb.o
 .debug_aranges
                0x00000000000001e8       0x20 Ventilation/src/DATABASE/DB_TrendWrite.o
 .debug_aranges
                0x0000000000000208       0x20 Ventilation/src/DISPLAY/DIS_FifoRead.o
 .debug_aranges
                0x0000000000000228       0x20 Ventilation/src/GENERAL/Saturation.o
 .debug_aranges
                0x0000000000000248       0x20 Ventilation/src/INTERRUPTS/It_watchdog.o
 .debug_aranges
                0x0000000000000268       0x20 Ventilation/src/MAIN/MAIN_Global_Variables_Init.o
 .debug_aranges
                0x0000000000000288       0x20 Ventilation/src/MAIN/MAIN_Interfaces_Init.o
 .debug_aranges
                0x00000000000002a8       0x20 Ventilation/src/MAIN/MAIN_Security_Init.o
 .debug_aranges
                0x00000000000002c8       0x20 Ventilation/src/MAIN/MAIN_System_Init.o
 .debug_aranges
                0x00000000000002e8       0x40 Ventilation/src/MAIN/MAIN_Target_Init.o
 .debug_aranges
                0x0000000000000328       0x20 Ventilation/src/MAIN/MAIN_Tasks_Init.o
 .debug_aranges
                0x0000000000000348       0x20 Ventilation/src/MAIN/MAIN_Ventilation_Init.o
 .debug_aranges
                0x0000000000000368       0x20 Ventilation/src/SCHEDULER/SCHED_Setup_Main.o
 .debug_aranges
                0x0000000000000388       0x48 Ventilation/src/SCHEDULER/SCHED_Setup_entry.o
 .debug_aranges
                0x00000000000003d0       0x20 Ventilation/src/SCHEDULER/SCHED_Ventilation_Main.o
 .debug_aranges
                0x00000000000003f0       0x20 Ventilation/src/SET_UP/SET_Actuator.o
 .debug_aranges
                0x0000000000000410       0x20 Ventilation/src/SET_UP/SET_CalibrationManagement.o
 .debug_aranges
                0x0000000000000430       0x20 Ventilation/src/SET_UP/SET_RTC_Mngt.o
 .debug_aranges
                0x0000000000000450       0x20 Ventilation/src/SET_UP/SET_TechnicalAlarms.o
 .debug_aranges
                0x0000000000000470       0x20 Ventilation/src/SYSTEM/INT_AbsPress_Interpol.o
 .debug_aranges
                0x0000000000000490       0x20 Ventilation/src/SYSTEM/INT_BlowerTemperatureInterpol.o
 .debug_aranges
                0x00000000000004b0       0x20 Ventilation/src/SYSTEM/INT_ExhFlow_Interpol.o
 .debug_aranges
                0x00000000000004d0       0x20 Ventilation/src/SYSTEM/INT_Fio2_Interpol.o
 .debug_aranges
                0x00000000000004f0       0x20 Ventilation/src/SYSTEM/INT_Flow_Conversion_Equation.o
 .debug_aranges
                0x0000000000000510       0x20 Ventilation/src/SYSTEM/INT_InspFlow_Interpol.o
 .debug_aranges
                0x0000000000000530       0x20 Ventilation/src/SYSTEM/INT_O2Flow_Interpol.o
 .debug_aranges
                0x0000000000000550       0x20 Ventilation/src/SYSTEM/INT_O2Press_Interpol.o
 .debug_aranges
                0x0000000000000570       0x20 Ventilation/src/SYSTEM/INT_PatPress_Interpol.o
 .debug_aranges
                0x0000000000000590       0x20 Ventilation/src/SYSTEM/INT_ProxiPress_Interpol.o
 .debug_aranges
                0x00000000000005b0       0x20 Ventilation/src/SYSTEM/INT_SpeedBlow_Interpol.o
 .debug_aranges
                0x00000000000005d0       0x20 Ventilation/src/SYSTEM/INT_ValvePress_Interpol.o
 .debug_aranges
                0x00000000000005f0       0x20 Ventilation/src/SYSTEM/INT_Voltages_Interpol.o
 .debug_aranges
                0x0000000000000610       0x20 Ventilation/src/SYSTEM/SYS_Backlight_Mngt.o
 .debug_aranges
                0x0000000000000630       0x20 Ventilation/src/SYSTEM/SYS_CurveFlowCalcul.o
 .debug_aranges
                0x0000000000000650       0x20 Ventilation/src/SYSTEM/SYS_Fio2Detection.o
 .debug_aranges
                0x0000000000000670       0x20 Ventilation/src/SYSTEM/SYS_Interpolation.o
 .debug_aranges
                0x0000000000000690       0x20 Ventilation/src/SYSTEM/SYS_Keyboard.o
 .debug_aranges
                0x00000000000006b0       0x20 Ventilation/src/SYSTEM/SYS_SetupLaunch.o
 .debug_aranges
                0x00000000000006d0       0x20 Ventilation/src/SYSTEM/SYS_SupplyDetect.o
 .debug_aranges
                0x00000000000006f0       0x20 Ventilation/src/TIMERS/TIM_Launch.o
 .debug_aranges
                0x0000000000000710       0x20 Ventilation/src/TIMERS/TIM_ReadCounterValue.o
 .debug_aranges
                0x0000000000000730       0x20 Ventilation/src/TIMERS/TIM_ReadDecounterValue.o
 .debug_aranges
                0x0000000000000750       0x20 Ventilation/src/TIMERS/TIM_StartDecounter.o
 .debug_aranges
                0x0000000000000770       0x20 Ventilation/src/TIMERS/TIM_Temporize.o
 .debug_aranges
                0x0000000000000790       0x20 Ventilation/src/VENTILATION/VEN_Cycles.o
 .debug_aranges
                0x00000000000007b0       0x20 Ventilation/src/VENTILATION/VEN_RiseCompute.o
 .debug_aranges
                0x00000000000007d0       0x40 src/MAIN.o
 .debug_aranges
                0x0000000000000810       0x28 startup/startup_stm32.o

.debug_ranges   0x0000000000000000      0x460
 .debug_ranges  0x0000000000000000       0x10 Ventilation/src/ACTUATOR/ACT_BlowerCmd.o
 .debug_ranges  0x0000000000000010       0x10 Ventilation/src/ACTUATOR/ACT_BrakePower.o
 .debug_ranges  0x0000000000000020       0x10 Ventilation/src/DATABASE/DB_AlarmInfoWrite.o
 .debug_ranges  0x0000000000000030       0x10 Ventilation/src/DATABASE/DB_AlarmStatusWrite.o
 .debug_ranges  0x0000000000000040       0x10 Ventilation/src/DATABASE/DB_ComputeRead.o
 .debug_ranges  0x0000000000000050       0x10 Ventilation/src/DATABASE/DB_ComputeWrite.o
 .debug_ranges  0x0000000000000060       0x10 Ventilation/src/DATABASE/DB_ConfigRead.o
 .debug_ranges  0x0000000000000070       0x10 Ventilation/src/DATABASE/DB_ControlRead.o
 .debug_ranges  0x0000000000000080       0x10 Ventilation/src/DATABASE/DB_ControlWrite.o
 .debug_ranges  0x0000000000000090       0x10 Ventilation/src/DATABASE/DB_CurrentRead.o
 .debug_ranges  0x00000000000000a0       0x18 Ventilation/src/DATABASE/DB_EventMngt.o
 .debug_ranges  0x00000000000000b8       0x10 Ventilation/src/DATABASE/DB_MeasurementWrite.o
 .debug_ranges  0x00000000000000c8       0x10 Ventilation/src/DATABASE/DB_RTCRead.o
 .debug_ranges  0x00000000000000d8       0x10 Ventilation/src/DATABASE/DB_RTCWrite.o
 .debug_ranges  0x00000000000000e8       0x10 Ventilation/src/DATABASE/DB_StartInitDb.o
 .debug_ranges  0x00000000000000f8       0x10 Ventilation/src/DATABASE/DB_TrendWrite.o
 .debug_ranges  0x0000000000000108       0x10 Ventilation/src/DISPLAY/DIS_FifoRead.o
 .debug_ranges  0x0000000000000118       0x10 Ventilation/src/GENERAL/Saturation.o
 .debug_ranges  0x0000000000000128       0x10 Ventilation/src/INTERRUPTS/It_watchdog.o
 .debug_ranges  0x0000000000000138       0x10 Ventilation/src/MAIN/MAIN_Global_Variables_Init.o
 .debug_ranges  0x0000000000000148       0x10 Ventilation/src/MAIN/MAIN_Interfaces_Init.o
 .debug_ranges  0x0000000000000158       0x10 Ventilation/src/MAIN/MAIN_Security_Init.o
 .debug_ranges  0x0000000000000168       0x10 Ventilation/src/MAIN/MAIN_System_Init.o
 .debug_ranges  0x0000000000000178       0x30 Ventilation/src/MAIN/MAIN_Target_Init.o
 .debug_ranges  0x00000000000001a8       0x10 Ventilation/src/MAIN/MAIN_Tasks_Init.o
 .debug_ranges  0x00000000000001b8       0x10 Ventilation/src/MAIN/MAIN_Ventilation_Init.o
 .debug_ranges  0x00000000000001c8       0x10 Ventilation/src/SCHEDULER/SCHED_Setup_Main.o
 .debug_ranges  0x00000000000001d8       0x38 Ventilation/src/SCHEDULER/SCHED_Setup_entry.o
 .debug_ranges  0x0000000000000210       0x10 Ventilation/src/SCHEDULER/SCHED_Ventilation_Main.o
 .debug_ranges  0x0000000000000220       0x10 Ventilation/src/SET_UP/SET_Actuator.o
 .debug_ranges  0x0000000000000230       0x10 Ventilation/src/SET_UP/SET_CalibrationManagement.o
 .debug_ranges  0x0000000000000240       0x10 Ventilation/src/SET_UP/SET_RTC_Mngt.o
 .debug_ranges  0x0000000000000250       0x10 Ventilation/src/SET_UP/SET_TechnicalAlarms.o
 .debug_ranges  0x0000000000000260       0x10 Ventilation/src/SYSTEM/INT_AbsPress_Interpol.o
 .debug_ranges  0x0000000000000270       0x10 Ventilation/src/SYSTEM/INT_BlowerTemperatureInterpol.o
 .debug_ranges  0x0000000000000280       0x10 Ventilation/src/SYSTEM/INT_ExhFlow_Interpol.o
 .debug_ranges  0x0000000000000290       0x10 Ventilation/src/SYSTEM/INT_Fio2_Interpol.o
 .debug_ranges  0x00000000000002a0       0x10 Ventilation/src/SYSTEM/INT_Flow_Conversion_Equation.o
 .debug_ranges  0x00000000000002b0       0x10 Ventilation/src/SYSTEM/INT_InspFlow_Interpol.o
 .debug_ranges  0x00000000000002c0       0x10 Ventilation/src/SYSTEM/INT_O2Flow_Interpol.o
 .debug_ranges  0x00000000000002d0       0x10 Ventilation/src/SYSTEM/INT_O2Press_Interpol.o
 .debug_ranges  0x00000000000002e0       0x10 Ventilation/src/SYSTEM/INT_PatPress_Interpol.o
 .debug_ranges  0x00000000000002f0       0x10 Ventilation/src/SYSTEM/INT_ProxiPress_Interpol.o
 .debug_ranges  0x0000000000000300       0x10 Ventilation/src/SYSTEM/INT_SpeedBlow_Interpol.o
 .debug_ranges  0x0000000000000310       0x10 Ventilation/src/SYSTEM/INT_ValvePress_Interpol.o
 .debug_ranges  0x0000000000000320       0x10 Ventilation/src/SYSTEM/INT_Voltages_Interpol.o
 .debug_ranges  0x0000000000000330       0x10 Ventilation/src/SYSTEM/SYS_Backlight_Mngt.o
 .debug_ranges  0x0000000000000340       0x10 Ventilation/src/SYSTEM/SYS_CurveFlowCalcul.o
 .debug_ranges  0x0000000000000350       0x10 Ventilation/src/SYSTEM/SYS_Fio2Detection.o
 .debug_ranges  0x0000000000000360       0x10 Ventilation/src/SYSTEM/SYS_Interpolation.o
 .debug_ranges  0x0000000000000370       0x10 Ventilation/src/SYSTEM/SYS_Keyboard.o
 .debug_ranges  0x0000000000000380       0x10 Ventilation/src/SYSTEM/SYS_SetupLaunch.o
 .debug_ranges  0x0000000000000390       0x10 Ventilation/src/SYSTEM/SYS_SupplyDetect.o
 .debug_ranges  0x00000000000003a0       0x10 Ventilation/src/TIMERS/TIM_Launch.o
 .debug_ranges  0x00000000000003b0       0x10 Ventilation/src/TIMERS/TIM_ReadCounterValue.o
 .debug_ranges  0x00000000000003c0       0x10 Ventilation/src/TIMERS/TIM_ReadDecounterValue.o
 .debug_ranges  0x00000000000003d0       0x10 Ventilation/src/TIMERS/TIM_StartDecounter.o
 .debug_ranges  0x00000000000003e0       0x10 Ventilation/src/TIMERS/TIM_Temporize.o
 .debug_ranges  0x00000000000003f0       0x10 Ventilation/src/VENTILATION/VEN_Cycles.o
 .debug_ranges  0x0000000000000400       0x10 Ventilation/src/VENTILATION/VEN_RiseCompute.o
 .debug_ranges  0x0000000000000410       0x30 src/MAIN.o
 .debug_ranges  0x0000000000000440       0x20 startup/startup_stm32.o

.debug_macro    0x0000000000000000     0x4431
 .debug_macro   0x0000000000000000       0x89 Ventilation/src/ACTUATOR/ACT_BlowerCmd.o
 .debug_macro   0x0000000000000089      0xa66 Ventilation/src/ACTUATOR/ACT_BlowerCmd.o
 .debug_macro   0x0000000000000aef       0x1c Ventilation/src/ACTUATOR/ACT_BlowerCmd.o
 .debug_macro   0x0000000000000b0b      0x280 Ventilation/src/ACTUATOR/ACT_BlowerCmd.o
 .debug_macro   0x0000000000000d8b       0x40 Ventilation/src/ACTUATOR/ACT_BlowerCmd.o
 .debug_macro   0x0000000000000dcb       0x29 Ventilation/src/ACTUATOR/ACT_BrakePower.o
 .debug_macro   0x0000000000000df4       0x3f Ventilation/src/DATABASE/DB_AlarmInfoWrite.o
 .debug_macro   0x0000000000000e33       0x3f Ventilation/src/DATABASE/DB_AlarmStatusWrite.o
 .debug_macro   0x0000000000000e72       0x24 Ventilation/src/DATABASE/DB_ComputeRead.o
 .debug_macro   0x0000000000000e96       0x75 Ventilation/src/DATABASE/DB_ComputeWrite.o
 .debug_macro   0x0000000000000f0b       0x16 Ventilation/src/DATABASE/DB_ComputeWrite.o
 .debug_macro   0x0000000000000f21      0x1a2 Ventilation/src/DATABASE/DB_ComputeWrite.o
 .debug_macro   0x00000000000010c3       0x3f Ventilation/src/DATABASE/DB_ConfigRead.o
 .debug_macro   0x0000000000001102       0x2e Ventilation/src/DATABASE/DB_ControlRead.o
 .debug_macro   0x0000000000001130       0x97 Ventilation/src/DATABASE/DB_ControlWrite.o
 .debug_macro   0x00000000000011c7       0x2e Ventilation/src/DATABASE/DB_CurrentRead.o
 .debug_macro   0x00000000000011f5       0x8e Ventilation/src/DATABASE/DB_EventMngt.o
 .debug_macro   0x0000000000001283       0x1c Ventilation/src/DATABASE/DB_EventMngt.o
 .debug_macro   0x000000000000129f       0x24 Ventilation/src/DATABASE/DB_MeasurementWrite.o
 .debug_macro   0x00000000000012c3       0x24 Ventilation/src/DATABASE/DB_RTCRead.o
 .debug_macro   0x00000000000012e7       0x7a Ventilation/src/DATABASE/DB_RTCWrite.o
 .debug_macro   0x0000000000001361       0x10 Ventilation/src/DATABASE/DB_RTCWrite.o
 .debug_macro   0x0000000000001371       0xd0 Ventilation/src/DATABASE/DB_StartInitDb.o
 .debug_macro   0x0000000000001441     0x1203 Ventilation/src/DATABASE/DB_StartInitDb.o
 .debug_macro   0x0000000000002644       0x10 Ventilation/src/DATABASE/DB_StartInitDb.o
 .debug_macro   0x0000000000002654       0x75 Ventilation/src/DATABASE/DB_TrendWrite.o
 .debug_macro   0x00000000000026c9       0x69 Ventilation/src/DISPLAY/DIS_FifoRead.o
 .debug_macro   0x0000000000002732       0x10 Ventilation/src/DISPLAY/DIS_FifoRead.o
 .debug_macro   0x0000000000002742       0x10 Ventilation/src/DISPLAY/DIS_FifoRead.o
 .debug_macro   0x0000000000002752       0x1a Ventilation/src/GENERAL/Saturation.o
 .debug_macro   0x000000000000276c       0x17 Ventilation/src/INTERRUPTS/It_watchdog.o
 .debug_macro   0x0000000000002783       0xe4 Ventilation/src/MAIN/MAIN_Global_Variables_Init.o
 .debug_macro   0x0000000000002867      0x184 Ventilation/src/MAIN/MAIN_Global_Variables_Init.o
 .debug_macro   0x00000000000029eb       0x63 Ventilation/src/MAIN/MAIN_Global_Variables_Init.o
 .debug_macro   0x0000000000002a4e      0x196 Ventilation/src/MAIN/MAIN_Global_Variables_Init.o
 .debug_macro   0x0000000000002be4       0x10 Ventilation/src/MAIN/MAIN_Global_Variables_Init.o
 .debug_macro   0x0000000000002bf4       0x82 Ventilation/src/MAIN/MAIN_Global_Variables_Init.o
 .debug_macro   0x0000000000002c76      0x2a5 Ventilation/src/MAIN/MAIN_Global_Variables_Init.o
 .debug_macro   0x0000000000002f1b       0x10 Ventilation/src/MAIN/MAIN_Global_Variables_Init.o
 .debug_macro   0x0000000000002f2b       0xea Ventilation/src/MAIN/MAIN_Interfaces_Init.o
 .debug_macro   0x0000000000003015       0x10 Ventilation/src/MAIN/MAIN_Interfaces_Init.o
 .debug_macro   0x0000000000003025       0xc7 Ventilation/src/MAIN/MAIN_Security_Init.o
 .debug_macro   0x00000000000030ec       0x2d Ventilation/src/MAIN/MAIN_Security_Init.o
 .debug_macro   0x0000000000003119       0x6d Ventilation/src/MAIN/MAIN_System_Init.o
 .debug_macro   0x0000000000003186       0x83 Ventilation/src/MAIN/MAIN_System_Init.o
 .debug_macro   0x0000000000003209       0x10 Ventilation/src/MAIN/MAIN_System_Init.o
 .debug_macro   0x0000000000003219       0x5b Ventilation/src/MAIN/MAIN_Target_Init.o
 .debug_macro   0x0000000000003274       0x1b Ventilation/src/MAIN/MAIN_Tasks_Init.o
 .debug_macro   0x000000000000328f       0x8f Ventilation/src/MAIN/MAIN_Ventilation_Init.o
 .debug_macro   0x000000000000331e       0x16 Ventilation/src/MAIN/MAIN_Ventilation_Init.o
 .debug_macro   0x0000000000003334       0x60 Ventilation/src/SCHEDULER/SCHED_Setup_Main.o
 .debug_macro   0x0000000000003394       0x10 Ventilation/src/SCHEDULER/SCHED_Setup_Main.o
 .debug_macro   0x00000000000033a4       0x72 Ventilation/src/SCHEDULER/SCHED_Setup_entry.o
 .debug_macro   0x0000000000003416      0x1b1 Ventilation/src/SCHEDULER/SCHED_Setup_entry.o
 .debug_macro   0x00000000000035c7       0xd0 Ventilation/src/SCHEDULER/SCHED_Setup_entry.o
 .debug_macro   0x0000000000003697       0x60 Ventilation/src/SCHEDULER/SCHED_Ventilation_Main.o
 .debug_macro   0x00000000000036f7       0x99 Ventilation/src/SET_UP/SET_Actuator.o
 .debug_macro   0x0000000000003790       0x87 Ventilation/src/SET_UP/SET_CalibrationManagement.o
 .debug_macro   0x0000000000003817       0x61 Ventilation/src/SET_UP/SET_RTC_Mngt.o
 .debug_macro   0x0000000000003878       0x3f Ventilation/src/SET_UP/SET_TechnicalAlarms.o
 .debug_macro   0x00000000000038b7       0x65 Ventilation/src/SYSTEM/INT_AbsPress_Interpol.o
 .debug_macro   0x000000000000391c       0x10 Ventilation/src/SYSTEM/INT_AbsPress_Interpol.o
 .debug_macro   0x000000000000392c       0x53 Ventilation/src/SYSTEM/INT_BlowerTemperatureInterpol.o
 .debug_macro   0x000000000000397f       0x7d Ventilation/src/SYSTEM/INT_ExhFlow_Interpol.o
 .debug_macro   0x00000000000039fc       0x10 Ventilation/src/SYSTEM/INT_ExhFlow_Interpol.o
 .debug_macro   0x0000000000003a0c       0x79 Ventilation/src/SYSTEM/INT_Fio2_Interpol.o
 .debug_macro   0x0000000000003a85       0x43 Ventilation/src/SYSTEM/INT_Flow_Conversion_Equation.o
 .debug_macro   0x0000000000003ac8       0x7d Ventilation/src/SYSTEM/INT_InspFlow_Interpol.o
 .debug_macro   0x0000000000003b45       0x10 Ventilation/src/SYSTEM/INT_InspFlow_Interpol.o
 .debug_macro   0x0000000000003b55       0x7d Ventilation/src/SYSTEM/INT_O2Flow_Interpol.o
 .debug_macro   0x0000000000003bd2       0x10 Ventilation/src/SYSTEM/INT_O2Flow_Interpol.o
 .debug_macro   0x0000000000003be2       0x6f Ventilation/src/SYSTEM/INT_O2Press_Interpol.o
 .debug_macro   0x0000000000003c51       0x10 Ventilation/src/SYSTEM/INT_O2Press_Interpol.o
 .debug_macro   0x0000000000003c61       0x70 Ventilation/src/SYSTEM/INT_PatPress_Interpol.o
 .debug_macro   0x0000000000003cd1       0x70 Ventilation/src/SYSTEM/INT_ProxiPress_Interpol.o
 .debug_macro   0x0000000000003d41       0x5c Ventilation/src/SYSTEM/INT_SpeedBlow_Interpol.o
 .debug_macro   0x0000000000003d9d       0x66 Ventilation/src/SYSTEM/INT_ValvePress_Interpol.o
 .debug_macro   0x0000000000003e03       0x10 Ventilation/src/SYSTEM/INT_ValvePress_Interpol.o
 .debug_macro   0x0000000000003e13       0x70 Ventilation/src/SYSTEM/INT_Voltages_Interpol.o
 .debug_macro   0x0000000000003e83       0x7c Ventilation/src/SYSTEM/SYS_Backlight_Mngt.o
 .debug_macro   0x0000000000003eff       0x10 Ventilation/src/SYSTEM/SYS_Backlight_Mngt.o
 .debug_macro   0x0000000000003f0f       0x61 Ventilation/src/SYSTEM/SYS_CurveFlowCalcul.o
 .debug_macro   0x0000000000003f70       0x73 Ventilation/src/SYSTEM/SYS_Fio2Detection.o
 .debug_macro   0x0000000000003fe3       0x57 Ventilation/src/SYSTEM/SYS_Interpolation.o
 .debug_macro   0x000000000000403a       0x7c Ventilation/src/SYSTEM/SYS_Keyboard.o
 .debug_macro   0x00000000000040b6       0x28 Ventilation/src/SYSTEM/SYS_Keyboard.o
 .debug_macro   0x00000000000040de       0x1b Ventilation/src/SYSTEM/SYS_SetupLaunch.o
 .debug_macro   0x00000000000040f9       0x37 Ventilation/src/SYSTEM/SYS_SupplyDetect.o
 .debug_macro   0x0000000000004130       0x48 Ventilation/src/TIMERS/TIM_Launch.o
 .debug_macro   0x0000000000004178       0x48 Ventilation/src/TIMERS/TIM_ReadCounterValue.o
 .debug_macro   0x00000000000041c0       0x48 Ventilation/src/TIMERS/TIM_ReadDecounterValue.o
 .debug_macro   0x0000000000004208       0x48 Ventilation/src/TIMERS/TIM_StartDecounter.o
 .debug_macro   0x0000000000004250       0x6b Ventilation/src/TIMERS/TIM_Temporize.o
 .debug_macro   0x00000000000042bb       0xb2 Ventilation/src/VENTILATION/VEN_Cycles.o
 .debug_macro   0x000000000000436d       0x24 Ventilation/src/VENTILATION/VEN_RiseCompute.o
 .debug_macro   0x0000000000004391       0xa0 src/MAIN.o

.debug_line     0x0000000000000000     0x8369
 .debug_line    0x0000000000000000      0x2f2 Ventilation/src/ACTUATOR/ACT_BlowerCmd.o
 .debug_line    0x00000000000002f2      0x131 Ventilation/src/ACTUATOR/ACT_BrakePower.o
 .debug_line    0x0000000000000423      0x12c Ventilation/src/DATABASE/DB_AlarmInfoWrite.o
 .debug_line    0x000000000000054f      0x12c Ventilation/src/DATABASE/DB_AlarmStatusWrite.o
 .debug_line    0x000000000000067b      0x10a Ventilation/src/DATABASE/DB_ComputeRead.o
 .debug_line    0x0000000000000785      0x2c7 Ventilation/src/DATABASE/DB_ComputeWrite.o
 .debug_line    0x0000000000000a4c      0x11f Ventilation/src/DATABASE/DB_ConfigRead.o
 .debug_line    0x0000000000000b6b      0x165 Ventilation/src/DATABASE/DB_ControlRead.o
 .debug_line    0x0000000000000cd0      0x32c Ventilation/src/DATABASE/DB_ControlWrite.o
 .debug_line    0x0000000000000ffc      0x165 Ventilation/src/DATABASE/DB_CurrentRead.o
 .debug_line    0x0000000000001161      0x2fb Ventilation/src/DATABASE/DB_EventMngt.o
 .debug_line    0x000000000000145c      0x112 Ventilation/src/DATABASE/DB_MeasurementWrite.o
 .debug_line    0x000000000000156e      0x102 Ventilation/src/DATABASE/DB_RTCRead.o
 .debug_line    0x0000000000001670      0x2a0 Ventilation/src/DATABASE/DB_RTCWrite.o
 .debug_line    0x0000000000001910      0x3c2 Ventilation/src/DATABASE/DB_StartInitDb.o
 .debug_line    0x0000000000001cd2      0x2b2 Ventilation/src/DATABASE/DB_TrendWrite.o
 .debug_line    0x0000000000001f84      0x23f Ventilation/src/DISPLAY/DIS_FifoRead.o
 .debug_line    0x00000000000021c3       0xae Ventilation/src/GENERAL/Saturation.o
 .debug_line    0x0000000000002271       0x5f Ventilation/src/INTERRUPTS/It_watchdog.o
 .debug_line    0x00000000000022d0      0x4d2 Ventilation/src/MAIN/MAIN_Global_Variables_Init.o
 .debug_line    0x00000000000027a2      0x4eb Ventilation/src/MAIN/MAIN_Interfaces_Init.o
 .debug_line    0x0000000000002c8d      0x46f Ventilation/src/MAIN/MAIN_Security_Init.o
 .debug_line    0x00000000000030fc      0x2bc Ventilation/src/MAIN/MAIN_System_Init.o
 .debug_line    0x00000000000033b8      0x239 Ventilation/src/MAIN/MAIN_Target_Init.o
 .debug_line    0x00000000000035f1       0xb1 Ventilation/src/MAIN/MAIN_Tasks_Init.o
 .debug_line    0x00000000000036a2      0x3b7 Ventilation/src/MAIN/MAIN_Ventilation_Init.o
 .debug_line    0x0000000000003a59      0x1f7 Ventilation/src/SCHEDULER/SCHED_Setup_Main.o
 .debug_line    0x0000000000003c50      0x292 Ventilation/src/SCHEDULER/SCHED_Setup_entry.o
 .debug_line    0x0000000000003ee2      0x200 Ventilation/src/SCHEDULER/SCHED_Ventilation_Main.o
 .debug_line    0x00000000000040e2      0x36a Ventilation/src/SET_UP/SET_Actuator.o
 .debug_line    0x000000000000444c      0x305 Ventilation/src/SET_UP/SET_CalibrationManagement.o
 .debug_line    0x0000000000004751      0x1fa Ventilation/src/SET_UP/SET_RTC_Mngt.o
 .debug_line    0x000000000000494b      0x12c Ventilation/src/SET_UP/SET_TechnicalAlarms.o
 .debug_line    0x0000000000004a77      0x1e4 Ventilation/src/SYSTEM/INT_AbsPress_Interpol.o
 .debug_line    0x0000000000004c5b      0x1d5 Ventilation/src/SYSTEM/INT_BlowerTemperatureInterpol.o
 .debug_line    0x0000000000004e30      0x2b9 Ventilation/src/SYSTEM/INT_ExhFlow_Interpol.o
 .debug_line    0x00000000000050e9      0x1ea Ventilation/src/SYSTEM/INT_Fio2_Interpol.o
 .debug_line    0x00000000000052d3      0x15e Ventilation/src/SYSTEM/INT_Flow_Conversion_Equation.o
 .debug_line    0x0000000000005431      0x2f6 Ventilation/src/SYSTEM/INT_InspFlow_Interpol.o
 .debug_line    0x0000000000005727      0x28d Ventilation/src/SYSTEM/INT_O2Flow_Interpol.o
 .debug_line    0x00000000000059b4      0x1f2 Ventilation/src/SYSTEM/INT_O2Press_Interpol.o
 .debug_line    0x0000000000005ba6      0x1fb Ventilation/src/SYSTEM/INT_PatPress_Interpol.o
 .debug_line    0x0000000000005da1      0x204 Ventilation/src/SYSTEM/INT_ProxiPress_Interpol.o
 .debug_line    0x0000000000005fa5      0x21d Ventilation/src/SYSTEM/INT_SpeedBlow_Interpol.o
 .debug_line    0x00000000000061c2      0x1e9 Ventilation/src/SYSTEM/INT_ValvePress_Interpol.o
 .debug_line    0x00000000000063ab      0x286 Ventilation/src/SYSTEM/INT_Voltages_Interpol.o
 .debug_line    0x0000000000006631      0x28d Ventilation/src/SYSTEM/SYS_Backlight_Mngt.o
 .debug_line    0x00000000000068be      0x228 Ventilation/src/SYSTEM/SYS_CurveFlowCalcul.o
 .debug_line    0x0000000000006ae6      0x22e Ventilation/src/SYSTEM/SYS_Fio2Detection.o
 .debug_line    0x0000000000006d14      0x206 Ventilation/src/SYSTEM/SYS_Interpolation.o
 .debug_line    0x0000000000006f1a      0x282 Ventilation/src/SYSTEM/SYS_Keyboard.o
 .debug_line    0x000000000000719c       0xb5 Ventilation/src/SYSTEM/SYS_SetupLaunch.o
 .debug_line    0x0000000000007251      0x18c Ventilation/src/SYSTEM/SYS_SupplyDetect.o
 .debug_line    0x00000000000073dd      0x163 Ventilation/src/TIMERS/TIM_Launch.o
 .debug_line    0x0000000000007540      0x13c Ventilation/src/TIMERS/TIM_ReadCounterValue.o
 .debug_line    0x000000000000767c      0x13e Ventilation/src/TIMERS/TIM_ReadDecounterValue.o
 .debug_line    0x00000000000077ba      0x13c Ventilation/src/TIMERS/TIM_StartDecounter.o
 .debug_line    0x00000000000078f6      0x1d1 Ventilation/src/TIMERS/TIM_Temporize.o
 .debug_line    0x0000000000007ac7      0x35d Ventilation/src/VENTILATION/VEN_Cycles.o
 .debug_line    0x0000000000007e24      0x121 Ventilation/src/VENTILATION/VEN_RiseCompute.o
 .debug_line    0x0000000000007f45      0x3a8 src/MAIN.o
 .debug_line    0x00000000000082ed       0x7c startup/startup_stm32.o

.debug_str      0x0000000000000000    0x1639f
 .debug_str     0x0000000000000000     0x672a Ventilation/src/ACTUATOR/ACT_BlowerCmd.o
                                       0x682d (size before relaxing)
 .debug_str     0x000000000000672a       0x63 Ventilation/src/ACTUATOR/ACT_BrakePower.o
                                       0x37a5 (size before relaxing)
 .debug_str     0x000000000000678d       0x59 Ventilation/src/DATABASE/DB_AlarmInfoWrite.o
                                       0x381f (size before relaxing)
 .debug_str     0x00000000000067e6       0xb7 Ventilation/src/DATABASE/DB_AlarmStatusWrite.o
                                       0x3889 (size before relaxing)
 .debug_str     0x000000000000689d       0x49 Ventilation/src/DATABASE/DB_ComputeRead.o
                                       0x352f (size before relaxing)
 .debug_str     0x00000000000068e6      0x8ca Ventilation/src/DATABASE/DB_ComputeWrite.o
                                       0x3e23 (size before relaxing)
 .debug_str     0x00000000000071b0      0x98e Ventilation/src/DATABASE/DB_ConfigRead.o
                                       0x3735 (size before relaxing)
 .debug_str     0x0000000000007b3e       0x63 Ventilation/src/DATABASE/DB_ControlRead.o
                                       0x371c (size before relaxing)
 .debug_str     0x0000000000007ba1       0x62 Ventilation/src/DATABASE/DB_ControlWrite.o
                                       0x4022 (size before relaxing)
 .debug_str     0x0000000000007c03      0x507 Ventilation/src/DATABASE/DB_CurrentRead.o
                                       0x3286 (size before relaxing)
 .debug_str     0x000000000000810a      0xd92 Ventilation/src/DATABASE/DB_EventMngt.o
                                       0x5b71 (size before relaxing)
 .debug_str     0x0000000000008e9c      0x13f Ventilation/src/DATABASE/DB_MeasurementWrite.o
                                       0x2e8f (size before relaxing)
 .debug_str     0x0000000000008fdb       0x3d Ventilation/src/DATABASE/DB_RTCRead.o
                                       0x2e9c (size before relaxing)
 .debug_str     0x0000000000009018       0x5a Ventilation/src/DATABASE/DB_RTCWrite.o
                                       0x41f9 (size before relaxing)
 .debug_str     0x0000000000009072     0x812e Ventilation/src/DATABASE/DB_StartInitDb.o
                                       0xe5c4 (size before relaxing)
 .debug_str     0x00000000000111a0       0x6d Ventilation/src/DATABASE/DB_TrendWrite.o
                                       0x44e3 (size before relaxing)
 .debug_str     0x000000000001120d      0x218 Ventilation/src/DISPLAY/DIS_FifoRead.o
                                       0x2fb4 (size before relaxing)
 .debug_str     0x0000000000011425       0x43 Ventilation/src/GENERAL/Saturation.o
                                       0x2d93 (size before relaxing)
 .debug_str     0x0000000000011468       0x41 Ventilation/src/INTERRUPTS/It_watchdog.o
                                       0x2d1b (size before relaxing)
 .debug_str     0x00000000000114a9     0x22a2 Ventilation/src/MAIN/MAIN_Global_Variables_Init.o
                                       0x894a (size before relaxing)
 .debug_str     0x000000000001374b      0x154 Ventilation/src/MAIN/MAIN_Interfaces_Init.o
                                       0x44e3 (size before relaxing)
 .debug_str     0x000000000001389f       0xb1 Ventilation/src/MAIN/MAIN_Security_Init.o
                                       0x6343 (size before relaxing)
 .debug_str     0x0000000000013950       0x97 Ventilation/src/MAIN/MAIN_System_Init.o
                                       0x4949 (size before relaxing)
 .debug_str     0x00000000000139e7      0x181 Ventilation/src/MAIN/MAIN_Target_Init.o
                                       0x396c (size before relaxing)
 .debug_str     0x0000000000013b68       0x4d Ventilation/src/MAIN/MAIN_Tasks_Init.o
                                       0x2d1b (size before relaxing)
 .debug_str     0x0000000000013bb5      0x30e Ventilation/src/MAIN/MAIN_Ventilation_Init.o
                                       0x6e2c (size before relaxing)
 .debug_str     0x0000000000013ec3       0x6f Ventilation/src/SCHEDULER/SCHED_Setup_Main.o
                                       0x2eed (size before relaxing)
 .debug_str     0x0000000000013f32      0xdd0 Ventilation/src/SCHEDULER/SCHED_Setup_entry.o
                                       0x3cef (size before relaxing)
 .debug_str     0x0000000000014d02       0x4d Ventilation/src/SCHEDULER/SCHED_Ventilation_Main.o
                                       0x2f05 (size before relaxing)
 .debug_str     0x0000000000014d4f       0x39 Ventilation/src/SET_UP/SET_Actuator.o
                                       0x4c8f (size before relaxing)
 .debug_str     0x0000000000014d88       0xf8 Ventilation/src/SET_UP/SET_CalibrationManagement.o
                                       0x64a5 (size before relaxing)
 .debug_str     0x0000000000014e80       0x39 Ventilation/src/SET_UP/SET_RTC_Mngt.o
                                       0x2de9 (size before relaxing)
 .debug_str     0x0000000000014eb9       0x48 Ventilation/src/SET_UP/SET_TechnicalAlarms.o
                                       0x2dd0 (size before relaxing)
 .debug_str     0x0000000000014f01       0xfd Ventilation/src/SYSTEM/INT_AbsPress_Interpol.o
                                       0x3dce (size before relaxing)
 .debug_str     0x0000000000014ffe       0xe0 Ventilation/src/SYSTEM/INT_BlowerTemperatureInterpol.o
                                       0x36e7 (size before relaxing)
 .debug_str     0x00000000000150de      0x140 Ventilation/src/SYSTEM/INT_ExhFlow_Interpol.o
                                       0x536c (size before relaxing)
 .debug_str     0x000000000001521e       0xcf Ventilation/src/SYSTEM/INT_Fio2_Interpol.o
                                       0x4e66 (size before relaxing)
 .debug_str     0x00000000000152ed       0xf1 Ventilation/src/SYSTEM/INT_Flow_Conversion_Equation.o
                                       0x2e8f (size before relaxing)
 .debug_str     0x00000000000153de       0xea Ventilation/src/SYSTEM/INT_InspFlow_Interpol.o
                                       0x53bb (size before relaxing)
 .debug_str     0x00000000000154c8       0xb7 Ventilation/src/SYSTEM/INT_O2Flow_Interpol.o
                                       0x523c (size before relaxing)
 .debug_str     0x000000000001557f       0xe6 Ventilation/src/SYSTEM/INT_O2Press_Interpol.o
                                       0x4888 (size before relaxing)
 .debug_str     0x0000000000015665      0x11c Ventilation/src/SYSTEM/INT_PatPress_Interpol.o
                                       0x48be (size before relaxing)
 .debug_str     0x0000000000015781      0x128 Ventilation/src/SYSTEM/INT_ProxiPress_Interpol.o
                                       0x48ca (size before relaxing)
 .debug_str     0x00000000000158a9       0xe3 Ventilation/src/SYSTEM/INT_SpeedBlow_Interpol.o
                                       0x4dc2 (size before relaxing)
 .debug_str     0x000000000001598c      0x119 Ventilation/src/SYSTEM/INT_ValvePress_Interpol.o
                                       0x4160 (size before relaxing)
 .debug_str     0x0000000000015aa5       0xc8 Ventilation/src/SYSTEM/INT_Voltages_Interpol.o
                                       0x5704 (size before relaxing)
 .debug_str     0x0000000000015b6d       0x7b Ventilation/src/SYSTEM/SYS_Backlight_Mngt.o
                                       0x3fa9 (size before relaxing)
 .debug_str     0x0000000000015be8       0xdb Ventilation/src/SYSTEM/SYS_CurveFlowCalcul.o
                                       0x4ae0 (size before relaxing)
 .debug_str     0x0000000000015cc3       0x56 Ventilation/src/SYSTEM/SYS_Fio2Detection.o
                                       0x5355 (size before relaxing)
 .debug_str     0x0000000000015d19       0x5e Ventilation/src/SYSTEM/SYS_Interpolation.o
                                       0x3768 (size before relaxing)
 .debug_str     0x0000000000015d77       0xf4 Ventilation/src/SYSTEM/SYS_Keyboard.o
                                       0x403d (size before relaxing)
 .debug_str     0x0000000000015e6b       0x40 Ventilation/src/SYSTEM/SYS_SetupLaunch.o
                                       0x2d1e (size before relaxing)
 .debug_str     0x0000000000015eab       0x52 Ventilation/src/SYSTEM/SYS_SupplyDetect.o
                                       0x2df8 (size before relaxing)
 .debug_str     0x0000000000015efd       0x2f Ventilation/src/TIMERS/TIM_Launch.o
                                       0x47d4 (size before relaxing)
 .debug_str     0x0000000000015f2c       0x62 Ventilation/src/TIMERS/TIM_ReadCounterValue.o
                                       0x44d8 (size before relaxing)
 .debug_str     0x0000000000015f8e       0x4a Ventilation/src/TIMERS/TIM_ReadDecounterValue.o
                                       0x44dc (size before relaxing)
 .debug_str     0x0000000000015fd8       0x42 Ventilation/src/TIMERS/TIM_StartDecounter.o
                                       0x44e2 (size before relaxing)
 .debug_str     0x000000000001601a       0x52 Ventilation/src/TIMERS/TIM_Temporize.o
                                       0x3e21 (size before relaxing)
 .debug_str     0x000000000001606c      0x1e4 Ventilation/src/VENTILATION/VEN_Cycles.o
                                       0x70f9 (size before relaxing)
 .debug_str     0x0000000000016250       0x54 Ventilation/src/VENTILATION/VEN_RiseCompute.o
                                       0x2d9e (size before relaxing)
 .debug_str     0x00000000000162a4       0xd2 src/MAIN.o
                                       0x5e52 (size before relaxing)
 .debug_str     0x0000000000016376       0x29 startup/startup_stm32.o
                                         0x59 (size before relaxing)

.comment        0x0000000000000000       0x7f
 .comment       0x0000000000000000       0x7f Ventilation/src/ACTUATOR/ACT_BlowerCmd.o
                                         0x80 (size before relaxing)
 .comment       0x000000000000007f       0x80 Ventilation/src/ACTUATOR/ACT_BrakePower.o
 .comment       0x000000000000007f       0x80 Ventilation/src/DATABASE/DB_AlarmInfoWrite.o
 .comment       0x000000000000007f       0x80 Ventilation/src/DATABASE/DB_AlarmStatusWrite.o
 .comment       0x000000000000007f       0x80 Ventilation/src/DATABASE/DB_ComputeRead.o
 .comment       0x000000000000007f       0x80 Ventilation/src/DATABASE/DB_ComputeWrite.o
 .comment       0x000000000000007f       0x80 Ventilation/src/DATABASE/DB_ConfigRead.o
 .comment       0x000000000000007f       0x80 Ventilation/src/DATABASE/DB_ControlRead.o
 .comment       0x000000000000007f       0x80 Ventilation/src/DATABASE/DB_ControlWrite.o
 .comment       0x000000000000007f       0x80 Ventilation/src/DATABASE/DB_CurrentRead.o
 .comment       0x000000000000007f       0x80 Ventilation/src/DATABASE/DB_EventMngt.o
 .comment       0x000000000000007f       0x80 Ventilation/src/DATABASE/DB_MeasurementWrite.o
 .comment       0x000000000000007f       0x80 Ventilation/src/DATABASE/DB_RTCRead.o
 .comment       0x000000000000007f       0x80 Ventilation/src/DATABASE/DB_RTCWrite.o
 .comment       0x000000000000007f       0x80 Ventilation/src/DATABASE/DB_StartInitDb.o
 .comment       0x000000000000007f       0x80 Ventilation/src/DATABASE/DB_TrendWrite.o
 .comment       0x000000000000007f       0x80 Ventilation/src/DISPLAY/DIS_FifoRead.o
 .comment       0x000000000000007f       0x80 Ventilation/src/GENERAL/Saturation.o
 .comment       0x000000000000007f       0x80 Ventilation/src/INTERRUPTS/It_watchdog.o
 .comment       0x000000000000007f       0x80 Ventilation/src/MAIN/MAIN_Global_Variables_Init.o
 .comment       0x000000000000007f       0x80 Ventilation/src/MAIN/MAIN_Interfaces_Init.o
 .comment       0x000000000000007f       0x80 Ventilation/src/MAIN/MAIN_Security_Init.o
 .comment       0x000000000000007f       0x80 Ventilation/src/MAIN/MAIN_System_Init.o
 .comment       0x000000000000007f       0x80 Ventilation/src/MAIN/MAIN_Target_Init.o
 .comment       0x000000000000007f       0x80 Ventilation/src/MAIN/MAIN_Tasks_Init.o
 .comment       0x000000000000007f       0x80 Ventilation/src/MAIN/MAIN_Ventilation_Init.o
 .comment       0x000000000000007f       0x80 Ventilation/src/SCHEDULER/SCHED_Setup_Main.o
 .comment       0x000000000000007f       0x80 Ventilation/src/SCHEDULER/SCHED_Setup_entry.o
 .comment       0x000000000000007f       0x80 Ventilation/src/SCHEDULER/SCHED_Ventilation_Main.o
 .comment       0x000000000000007f       0x80 Ventilation/src/SET_UP/SET_Actuator.o
 .comment       0x000000000000007f       0x80 Ventilation/src/SET_UP/SET_CalibrationManagement.o
 .comment       0x000000000000007f       0x80 Ventilation/src/SET_UP/SET_RTC_Mngt.o
 .comment       0x000000000000007f       0x80 Ventilation/src/SET_UP/SET_TechnicalAlarms.o
 .comment       0x000000000000007f       0x80 Ventilation/src/SYSTEM/INT_AbsPress_Interpol.o
 .comment       0x000000000000007f       0x80 Ventilation/src/SYSTEM/INT_BlowerTemperatureInterpol.o
 .comment       0x000000000000007f       0x80 Ventilation/src/SYSTEM/INT_ExhFlow_Interpol.o
 .comment       0x000000000000007f       0x80 Ventilation/src/SYSTEM/INT_Fio2_Interpol.o
 .comment       0x000000000000007f       0x80 Ventilation/src/SYSTEM/INT_Flow_Conversion_Equation.o
 .comment       0x000000000000007f       0x80 Ventilation/src/SYSTEM/INT_InspFlow_Interpol.o
 .comment       0x000000000000007f       0x80 Ventilation/src/SYSTEM/INT_O2Flow_Interpol.o
 .comment       0x000000000000007f       0x80 Ventilation/src/SYSTEM/INT_O2Press_Interpol.o
 .comment       0x000000000000007f       0x80 Ventilation/src/SYSTEM/INT_PatPress_Interpol.o
 .comment       0x000000000000007f       0x80 Ventilation/src/SYSTEM/INT_ProxiPress_Interpol.o
 .comment       0x000000000000007f       0x80 Ventilation/src/SYSTEM/INT_SpeedBlow_Interpol.o
 .comment       0x000000000000007f       0x80 Ventilation/src/SYSTEM/INT_ValvePress_Interpol.o
 .comment       0x000000000000007f       0x80 Ventilation/src/SYSTEM/INT_Voltages_Interpol.o
 .comment       0x000000000000007f       0x80 Ventilation/src/SYSTEM/SYS_Backlight_Mngt.o
 .comment       0x000000000000007f       0x80 Ventilation/src/SYSTEM/SYS_CurveFlowCalcul.o
 .comment       0x000000000000007f       0x80 Ventilation/src/SYSTEM/SYS_Fio2Detection.o
 .comment       0x000000000000007f       0x80 Ventilation/src/SYSTEM/SYS_Interpolation.o
 .comment       0x000000000000007f       0x80 Ventilation/src/SYSTEM/SYS_Keyboard.o
 .comment       0x000000000000007f       0x80 Ventilation/src/SYSTEM/SYS_SetupLaunch.o
 .comment       0x000000000000007f       0x80 Ventilation/src/SYSTEM/SYS_SupplyDetect.o
 .comment       0x000000000000007f       0x80 Ventilation/src/TIMERS/TIM_Launch.o
 .comment       0x000000000000007f       0x80 Ventilation/src/TIMERS/TIM_ReadCounterValue.o
 .comment       0x000000000000007f       0x80 Ventilation/src/TIMERS/TIM_ReadDecounterValue.o
 .comment       0x000000000000007f       0x80 Ventilation/src/TIMERS/TIM_StartDecounter.o
 .comment       0x000000000000007f       0x80 Ventilation/src/TIMERS/TIM_Temporize.o
 .comment       0x000000000000007f       0x80 Ventilation/src/VENTILATION/VEN_Cycles.o
 .comment       0x000000000000007f       0x80 Ventilation/src/VENTILATION/VEN_RiseCompute.o
 .comment       0x000000000000007f       0x80 src/MAIN.o

.debug_frame    0x0000000000000000     0x1040
 .debug_frame   0x0000000000000000       0x38 Ventilation/src/ACTUATOR/ACT_BlowerCmd.o
 .debug_frame   0x0000000000000038       0x38 Ventilation/src/ACTUATOR/ACT_BrakePower.o
 .debug_frame   0x0000000000000070       0x38 Ventilation/src/DATABASE/DB_AlarmInfoWrite.o
 .debug_frame   0x00000000000000a8       0x38 Ventilation/src/DATABASE/DB_AlarmStatusWrite.o
 .debug_frame   0x00000000000000e0       0x38 Ventilation/src/DATABASE/DB_ComputeRead.o
 .debug_frame   0x0000000000000118       0x38 Ventilation/src/DATABASE/DB_ComputeWrite.o
 .debug_frame   0x0000000000000150       0x38 Ventilation/src/DATABASE/DB_ConfigRead.o
 .debug_frame   0x0000000000000188       0x38 Ventilation/src/DATABASE/DB_ControlRead.o
 .debug_frame   0x00000000000001c0       0x38 Ventilation/src/DATABASE/DB_ControlWrite.o
 .debug_frame   0x00000000000001f8       0x38 Ventilation/src/DATABASE/DB_CurrentRead.o
 .debug_frame   0x0000000000000230       0x60 Ventilation/src/DATABASE/DB_EventMngt.o
 .debug_frame   0x0000000000000290       0x38 Ventilation/src/DATABASE/DB_MeasurementWrite.o
 .debug_frame   0x00000000000002c8       0x38 Ventilation/src/DATABASE/DB_RTCRead.o
 .debug_frame   0x0000000000000300       0x38 Ventilation/src/DATABASE/DB_RTCWrite.o
 .debug_frame   0x0000000000000338       0x30 Ventilation/src/DATABASE/DB_StartInitDb.o
 .debug_frame   0x0000000000000368       0x38 Ventilation/src/DATABASE/DB_TrendWrite.o
 .debug_frame   0x00000000000003a0       0x30 Ventilation/src/DISPLAY/DIS_FifoRead.o
 .debug_frame   0x00000000000003d0       0x38 Ventilation/src/GENERAL/Saturation.o
 .debug_frame   0x0000000000000408       0x34 Ventilation/src/INTERRUPTS/It_watchdog.o
 .debug_frame   0x000000000000043c       0x38 Ventilation/src/MAIN/MAIN_Global_Variables_Init.o
 .debug_frame   0x0000000000000474       0x38 Ventilation/src/MAIN/MAIN_Interfaces_Init.o
 .debug_frame   0x00000000000004ac       0x38 Ventilation/src/MAIN/MAIN_Security_Init.o
 .debug_frame   0x00000000000004e4       0x34 Ventilation/src/MAIN/MAIN_System_Init.o
 .debug_frame   0x0000000000000518       0xb0 Ventilation/src/MAIN/MAIN_Target_Init.o
 .debug_frame   0x00000000000005c8       0x2c Ventilation/src/MAIN/MAIN_Tasks_Init.o
 .debug_frame   0x00000000000005f4       0x34 Ventilation/src/MAIN/MAIN_Ventilation_Init.o
 .debug_frame   0x0000000000000628       0x2c Ventilation/src/SCHEDULER/SCHED_Setup_Main.o
 .debug_frame   0x0000000000000654       0xcc Ventilation/src/SCHEDULER/SCHED_Setup_entry.o
 .debug_frame   0x0000000000000720       0x30 Ventilation/src/SCHEDULER/SCHED_Ventilation_Main.o
 .debug_frame   0x0000000000000750       0x30 Ventilation/src/SET_UP/SET_Actuator.o
 .debug_frame   0x0000000000000780       0x30 Ventilation/src/SET_UP/SET_CalibrationManagement.o
 .debug_frame   0x00000000000007b0       0x30 Ventilation/src/SET_UP/SET_RTC_Mngt.o
 .debug_frame   0x00000000000007e0       0x30 Ventilation/src/SET_UP/SET_TechnicalAlarms.o
 .debug_frame   0x0000000000000810       0x34 Ventilation/src/SYSTEM/INT_AbsPress_Interpol.o
 .debug_frame   0x0000000000000844       0x38 Ventilation/src/SYSTEM/INT_BlowerTemperatureInterpol.o
 .debug_frame   0x000000000000087c       0x38 Ventilation/src/SYSTEM/INT_ExhFlow_Interpol.o
 .debug_frame   0x00000000000008b4       0x38 Ventilation/src/SYSTEM/INT_Fio2_Interpol.o
 .debug_frame   0x00000000000008ec       0x34 Ventilation/src/SYSTEM/INT_Flow_Conversion_Equation.o
 .debug_frame   0x0000000000000920       0x38 Ventilation/src/SYSTEM/INT_InspFlow_Interpol.o
 .debug_frame   0x0000000000000958       0x38 Ventilation/src/SYSTEM/INT_O2Flow_Interpol.o
 .debug_frame   0x0000000000000990       0x34 Ventilation/src/SYSTEM/INT_O2Press_Interpol.o
 .debug_frame   0x00000000000009c4       0x34 Ventilation/src/SYSTEM/INT_PatPress_Interpol.o
 .debug_frame   0x00000000000009f8       0x34 Ventilation/src/SYSTEM/INT_ProxiPress_Interpol.o
 .debug_frame   0x0000000000000a2c       0x34 Ventilation/src/SYSTEM/INT_SpeedBlow_Interpol.o
 .debug_frame   0x0000000000000a60       0x34 Ventilation/src/SYSTEM/INT_ValvePress_Interpol.o
 .debug_frame   0x0000000000000a94       0x34 Ventilation/src/SYSTEM/INT_Voltages_Interpol.o
 .debug_frame   0x0000000000000ac8       0x30 Ventilation/src/SYSTEM/SYS_Backlight_Mngt.o
 .debug_frame   0x0000000000000af8       0x34 Ventilation/src/SYSTEM/SYS_CurveFlowCalcul.o
 .debug_frame   0x0000000000000b2c       0x30 Ventilation/src/SYSTEM/SYS_Fio2Detection.o
 .debug_frame   0x0000000000000b5c       0x2c Ventilation/src/SYSTEM/SYS_Interpolation.o
 .debug_frame   0x0000000000000b88       0x30 Ventilation/src/SYSTEM/SYS_Keyboard.o
 .debug_frame   0x0000000000000bb8       0x2c Ventilation/src/SYSTEM/SYS_SetupLaunch.o
 .debug_frame   0x0000000000000be4       0x30 Ventilation/src/SYSTEM/SYS_SupplyDetect.o
 .debug_frame   0x0000000000000c14       0x38 Ventilation/src/TIMERS/TIM_Launch.o
 .debug_frame   0x0000000000000c4c       0x38 Ventilation/src/TIMERS/TIM_ReadCounterValue.o
 .debug_frame   0x0000000000000c84       0x38 Ventilation/src/TIMERS/TIM_ReadDecounterValue.o
 .debug_frame   0x0000000000000cbc       0x38 Ventilation/src/TIMERS/TIM_StartDecounter.o
 .debug_frame   0x0000000000000cf4       0x38 Ventilation/src/TIMERS/TIM_Temporize.o
 .debug_frame   0x0000000000000d2c       0x30 Ventilation/src/VENTILATION/VEN_Cycles.o
 .debug_frame   0x0000000000000d5c       0x38 Ventilation/src/VENTILATION/VEN_RiseCompute.o
 .debug_frame   0x0000000000000d94       0xb4 src/MAIN.o
 .debug_frame   0x0000000000000e48       0x2c /home/bhavya/Downloads/1/plugins/fr.ac6.mcu.externaltools.arm-none.linux64_1.17.0.201812190825/tools/compiler/bin/../lib/gcc/arm-none-eabi/7.3.1/../../../../arm-none-eabi/lib/thumb/v7e-m/fpv4-sp/hard/libc.a(lib_a-init.o)
 .debug_frame   0x0000000000000e74       0x38 /home/bhavya/Downloads/1/plugins/fr.ac6.mcu.externaltools.arm-none.linux64_1.17.0.201812190825/tools/compiler/bin/../lib/gcc/arm-none-eabi/7.3.1/../../../../arm-none-eabi/lib/thumb/v7e-m/fpv4-sp/hard/libc.a(lib_a-memset.o)
 .debug_frame   0x0000000000000eac       0x5c /home/bhavya/Downloads/1/plugins/fr.ac6.mcu.externaltools.arm-none.linux64_1.17.0.201812190825/tools/compiler/bin/../lib/gcc/arm-none-eabi/7.3.1/../../../../arm-none-eabi/lib/thumb/v7e-m/fpv4-sp/hard/libc.a(lib_a-__call_atexit.o)
 .debug_frame   0x0000000000000f08       0x20 /home/bhavya/Downloads/1/plugins/fr.ac6.mcu.externaltools.arm-none.linux64_1.17.0.201812190825/tools/compiler/bin/../lib/gcc/arm-none-eabi/7.3.1/../../../../arm-none-eabi/lib/thumb/v7e-m/fpv4-sp/hard/libc.a(lib_a-atexit.o)
 .debug_frame   0x0000000000000f28       0x34 /home/bhavya/Downloads/1/plugins/fr.ac6.mcu.externaltools.arm-none.linux64_1.17.0.201812190825/tools/compiler/bin/../lib/gcc/arm-none-eabi/7.3.1/../../../../arm-none-eabi/lib/thumb/v7e-m/fpv4-sp/hard/libc.a(lib_a-fini.o)
 .debug_frame   0x0000000000000f5c       0xb0 /home/bhavya/Downloads/1/plugins/fr.ac6.mcu.externaltools.arm-none.linux64_1.17.0.201812190825/tools/compiler/bin/../lib/gcc/arm-none-eabi/7.3.1/../../../../arm-none-eabi/lib/thumb/v7e-m/fpv4-sp/hard/libc.a(lib_a-lock.o)
 .debug_frame   0x000000000000100c       0x34 /home/bhavya/Downloads/1/plugins/fr.ac6.mcu.externaltools.arm-none.linux64_1.17.0.201812190825/tools/compiler/bin/../lib/gcc/arm-none-eabi/7.3.1/../../../../arm-none-eabi/lib/thumb/v7e-m/fpv4-sp/hard/libc.a(lib_a-__atexit.o)
